ARM GAS  C:\Users\Ryan\AppData\Local\Temp\ccqC6Dda.s 			page 1


   1              		.syntax unified
   2              		.cpu cortex-m0plus
   3              		.fpu softvfp
   4              		.eabi_attribute 20, 1
   5              		.eabi_attribute 21, 1
   6              		.eabi_attribute 23, 3
   7              		.eabi_attribute 24, 1
   8              		.eabi_attribute 25, 1
   9              		.eabi_attribute 26, 1
  10              		.eabi_attribute 30, 1
  11              		.eabi_attribute 34, 0
  12              		.eabi_attribute 18, 4
  13              		.thumb
  14              		.syntax unified
  15              		.file	"main.c"
  16              		.text
  17              	.Ltext0:
  18              		.cfi_sections	.debug_frame
  19              		.section	.text.SYSTCK_HANDLER,"ax",%progbits
  20              		.align	2
  21              		.global	SYSTCK_HANDLER
  22              		.code	16
  23              		.thumb_func
  24              		.type	SYSTCK_HANDLER, %function
  25              	SYSTCK_HANDLER:
  26              	.LFB33:
  27              		.file 1 "main.c"
   1:main.c        **** /* ========================================
   2:main.c        ****  *
   3:main.c        ****  * Copyright YOUR COMPANY, THE YEAR
   4:main.c        ****  * All Rights Reserved
   5:main.c        ****  * UNPUBLISHED, LICENSED SOFTWARE.
   6:main.c        ****  *
   7:main.c        ****  * CONFIDENTIAL AND PROPRIETARY INFORMATION
   8:main.c        ****  * WHICH IS THE PROPERTY OF your company.
   9:main.c        ****  *
  10:main.c        ****  * ========================================
  11:main.c        **** */
  12:main.c        **** #include <project.h>
  13:main.c        **** #include <stdlib.h>
  14:main.c        **** #include "EEmodbus.h"
  15:main.c        **** #include "EEmotor.h"
  16:main.c        **** 
  17:main.c        **** uint64_t SYSTCK_millis = 0;
  18:main.c        **** uint16_t MOT1_NEXT_COMP = 000; //Range: 0-800 for 30kHz operation
  19:main.c        **** uint16_t MOT2_NEXT_COMP = 000; //Range: 0-800 for 30kHz operation
  20:main.c        **** 
  21:main.c        **** uint8_t ModRX_INDEX = 0; //Global var - Index of RX
  22:main.c        **** 
  23:main.c        **** 
  24:main.c        **** struct EEmodbus* Mod;
  25:main.c        **** 
  26:main.c        **** 
  27:main.c        **** #define NESTED_ISR                          (1u)
  28:main.c        **** #define DEFAULT_PRIORITY                    (3u)
  29:main.c        **** #define HIGHER_PRIORITY                     (2u)
  30:main.c        **** 
ARM GAS  C:\Users\Ryan\AppData\Local\Temp\ccqC6Dda.s 			page 2


  31:main.c        **** 
  32:main.c        **** /* Interrupt prototypes */
  33:main.c        **** CY_ISR_PROTO(SYSTCK_HANDLER);
  34:main.c        **** CY_ISR_PROTO(MOT1_HANDLER);
  35:main.c        **** CY_ISR_PROTO(MOT2_HANDLER);
  36:main.c        **** 
  37:main.c        **** uint64_t modbus_check_millis = 0;
  38:main.c        **** 
  39:main.c        **** CY_ISR(SYSTCK_HANDLER){ //define the ISR for the SYSTCK ISR
  28              		.loc 1 39 0
  29              		.cfi_startproc
  30              		@ args = 0, pretend = 0, frame = 0
  31              		@ frame_needed = 0, uses_anonymous_args = 0
  32 0000 70B5     		push	{r4, r5, r6, lr}
  33              		.cfi_def_cfa_offset 16
  34              		.cfi_offset 4, -16
  35              		.cfi_offset 5, -12
  36              		.cfi_offset 6, -8
  37              		.cfi_offset 14, -4
  40:main.c        ****     SYSTCK_millis ++;
  38              		.loc 1 40 0
  39 0002 0749     		ldr	r1, .L2
  40 0004 0122     		movs	r2, #1
  41 0006 0023     		movs	r3, #0
  42 0008 0C68     		ldr	r4, [r1]
  43 000a 4D68     		ldr	r5, [r1, #4]
  44 000c 1219     		adds	r2, r2, r4
  45 000e 6B41     		adcs	r3, r3, r5
  46 0010 0A60     		str	r2, [r1]
  47 0012 4B60     		str	r3, [r1, #4]
  41:main.c        ****     
  42:main.c        ****     
  43:main.c        ****      /* Clear pending Interrupt */
  44:main.c        ****     SYSTCK_ISR_ClearPending();
  48              		.loc 1 44 0
  49 0014 FFF7FEFF 		bl	SYSTCK_ISR_ClearPending
  50              	.LVL0:
  45:main.c        ****     /* Clear pin Interrupt */
  46:main.c        ****     SYSTCK_TIMER_ClearInterrupt(SYSTCK_TIMER_INTR_MASK_TC); //Clear TC Interrupt, not CC_MATCH "SYS
  51              		.loc 1 46 0
  52 0018 0120     		movs	r0, #1
  53 001a FFF7FEFF 		bl	SYSTCK_TIMER_ClearInterrupt
  54              	.LVL1:
  47:main.c        **** }
  55              		.loc 1 47 0
  56              		@ sp needed
  57 001e 70BD     		pop	{r4, r5, r6, pc}
  58              	.L3:
  59              		.align	2
  60              	.L2:
  61 0020 00000000 		.word	.LANCHOR0
  62              		.cfi_endproc
  63              	.LFE33:
  64              		.size	SYSTCK_HANDLER, .-SYSTCK_HANDLER
  65              		.section	.text.MOT1_HANDLER,"ax",%progbits
  66              		.align	2
  67              		.global	MOT1_HANDLER
ARM GAS  C:\Users\Ryan\AppData\Local\Temp\ccqC6Dda.s 			page 3


  68              		.code	16
  69              		.thumb_func
  70              		.type	MOT1_HANDLER, %function
  71              	MOT1_HANDLER:
  72              	.LFB34:
  48:main.c        **** 
  49:main.c        **** CY_ISR(MOT1_HANDLER){ //define the ISR for the MOT1 ISR
  73              		.loc 1 49 0
  74              		.cfi_startproc
  75              		@ args = 0, pretend = 0, frame = 0
  76              		@ frame_needed = 0, uses_anonymous_args = 0
  77 0000 10B5     		push	{r4, lr}
  78              		.cfi_def_cfa_offset 8
  79              		.cfi_offset 4, -8
  80              		.cfi_offset 14, -4
  50:main.c        ****     //Adjust Period --TODO:Move Protections to another castle
  51:main.c        ****     /*if(MOT1_NEXT_COMP > M1_PWM_ReadPeriod()){ //Clip Values that are too high!
  52:main.c        ****         MOT1_NEXT_COMP = M1_PWM_ReadPeriod();
  53:main.c        ****     }*/
  54:main.c        ****     M1_PWM_WriteCompare(MOT1_NEXT_COMP);
  81              		.loc 1 54 0
  82 0002 054B     		ldr	r3, .L5
  83 0004 1889     		ldrh	r0, [r3, #8]
  84 0006 FFF7FEFF 		bl	M1_PWM_WriteCompare
  85              	.LVL2:
  55:main.c        ****     
  56:main.c        ****      /* Clear pending Interrupt */
  57:main.c        ****     M1_ISR_ClearPending();
  86              		.loc 1 57 0
  87 000a FFF7FEFF 		bl	M1_ISR_ClearPending
  88              	.LVL3:
  58:main.c        ****     /* Clear pin Interrupt */
  59:main.c        ****     M1_PWM_ClearInterrupt(M1_PWM_INTR_MASK_TC); //Clear TC Interrupt, not CC_MATCH "SYSTCK_TIMER_IN
  89              		.loc 1 59 0
  90 000e 0120     		movs	r0, #1
  91 0010 FFF7FEFF 		bl	M1_PWM_ClearInterrupt
  92              	.LVL4:
  60:main.c        **** }
  93              		.loc 1 60 0
  94              		@ sp needed
  95 0014 10BD     		pop	{r4, pc}
  96              	.L6:
  97 0016 C046     		.align	2
  98              	.L5:
  99 0018 00000000 		.word	.LANCHOR0
 100              		.cfi_endproc
 101              	.LFE34:
 102              		.size	MOT1_HANDLER, .-MOT1_HANDLER
 103              		.section	.text.MOT2_HANDLER,"ax",%progbits
 104              		.align	2
 105              		.global	MOT2_HANDLER
 106              		.code	16
 107              		.thumb_func
 108              		.type	MOT2_HANDLER, %function
 109              	MOT2_HANDLER:
 110              	.LFB35:
  61:main.c        **** 
ARM GAS  C:\Users\Ryan\AppData\Local\Temp\ccqC6Dda.s 			page 4


  62:main.c        **** CY_ISR(MOT2_HANDLER){ //define the ISR for the MOT2 ISR
 111              		.loc 1 62 0
 112              		.cfi_startproc
 113              		@ args = 0, pretend = 0, frame = 0
 114              		@ frame_needed = 0, uses_anonymous_args = 0
 115 0000 10B5     		push	{r4, lr}
 116              		.cfi_def_cfa_offset 8
 117              		.cfi_offset 4, -8
 118              		.cfi_offset 14, -4
  63:main.c        ****     //Adjust Period --TODO:Move Protections to another castle
  64:main.c        ****     /*if(MOT2_NEXT_COMP > M2_PWM_ReadPeriod()){ //Clip Values that are too high!
  65:main.c        ****         MOT2_NEXT_COMP = M2_PWM_ReadPeriod();
  66:main.c        ****     }*/
  67:main.c        ****     M2_PWM_WriteCompare(MOT2_NEXT_COMP);
 119              		.loc 1 67 0
 120 0002 054B     		ldr	r3, .L8
 121 0004 5889     		ldrh	r0, [r3, #10]
 122 0006 FFF7FEFF 		bl	M2_PWM_WriteCompare
 123              	.LVL5:
  68:main.c        ****     
  69:main.c        ****      /* Clear pending Interrupt */
  70:main.c        ****     M2_ISR_ClearPending();
 124              		.loc 1 70 0
 125 000a FFF7FEFF 		bl	M2_ISR_ClearPending
 126              	.LVL6:
  71:main.c        ****     /* Clear pin Interrupt */
  72:main.c        ****     M2_PWM_ClearInterrupt(M2_PWM_INTR_MASK_TC); //Clear TC Interrupt, not CC_MATCH "SYSTCK_TIMER_IN
 127              		.loc 1 72 0
 128 000e 0120     		movs	r0, #1
 129 0010 FFF7FEFF 		bl	M2_PWM_ClearInterrupt
 130              	.LVL7:
  73:main.c        **** }
 131              		.loc 1 73 0
 132              		@ sp needed
 133 0014 10BD     		pop	{r4, pc}
 134              	.L9:
 135 0016 C046     		.align	2
 136              	.L8:
 137 0018 00000000 		.word	.LANCHOR0
 138              		.cfi_endproc
 139              	.LFE35:
 140              		.size	MOT2_HANDLER, .-MOT2_HANDLER
 141              		.section	.text.UART_HANDLER,"ax",%progbits
 142              		.align	2
 143              		.global	UART_HANDLER
 144              		.code	16
 145              		.thumb_func
 146              		.type	UART_HANDLER, %function
 147              	UART_HANDLER:
 148              	.LFB36:
  74:main.c        **** 
  75:main.c        **** 
  76:main.c        **** CY_ISR(UART_HANDLER){ //Define the ISR for the custom UART ISR Function.
 149              		.loc 1 76 0
 150              		.cfi_startproc
 151              		@ args = 0, pretend = 0, frame = 0
 152              		@ frame_needed = 0, uses_anonymous_args = 0
ARM GAS  C:\Users\Ryan\AppData\Local\Temp\ccqC6Dda.s 			page 5


 153 0000 70B5     		push	{r4, r5, r6, lr}
 154              		.cfi_def_cfa_offset 16
 155              		.cfi_offset 4, -16
 156              		.cfi_offset 5, -12
 157              		.cfi_offset 6, -8
 158              		.cfi_offset 14, -4
  77:main.c        ****     
  78:main.c        ****     
  79:main.c        ****     //// https://github.com/EmbeddedSam/Modbus-Slave-for-PSoC4
  80:main.c        ****     
  81:main.c        ****     uint32_t itrCause = UART_GetInterruptCause();
 159              		.loc 1 81 0
 160 0002 0F4B     		ldr	r3, .L15
 161 0004 1C68     		ldr	r4, [r3]
 162              	.LVL8:
  82:main.c        ****     
  83:main.c        ****     if( (itrCause&UART_INTR_CAUSE_RX) >0){ //If this is an RX Interrupt
 163              		.loc 1 83 0
 164 0006 2307     		lsls	r3, r4, #28
 165 0008 0ED5     		bpl	.L11
 166              	.LBB2:
  84:main.c        ****         uint32_t rx_cause = UART_GetRxInterruptSource();
 167              		.loc 1 84 0
 168 000a 0E4B     		ldr	r3, .L15+4
 169 000c 1B68     		ldr	r3, [r3]
 170              	.LVL9:
  85:main.c        ****         
  86:main.c        ****         if( (rx_cause & UART_INTR_RX_NOT_EMPTY) > 0){ //If the RX FIFO is not empty... read in stuf
 171              		.loc 1 86 0
 172 000e 5B07     		lsls	r3, r3, #29
 173 0010 07D5     		bpl	.L12
 174              	.LVL10:
  87:main.c        ****             //Read in Data and DO SOMETHING!!!!
  88:main.c        ****             
  89:main.c        ****             EEmodbus__addByte(Mod, UART_UartGetByte()); //process next byte
 175              		.loc 1 89 0
 176 0012 0D4B     		ldr	r3, .L15+8
 177 0014 1D68     		ldr	r5, [r3]
 178 0016 FFF7FEFF 		bl	UART_UartGetByte
 179              	.LVL11:
 180 001a C1B2     		uxtb	r1, r0
 181 001c 2800     		movs	r0, r5
 182 001e FFF7FEFF 		bl	EEmodbus__addByte
 183              	.LVL12:
 184              	.L12:
  90:main.c        ****         }
  91:main.c        ****         
  92:main.c        ****         UART_CLEAR_INTR_RX(UART_INTR_RX_NOT_EMPTY);
 185              		.loc 1 92 0
 186 0022 0422     		movs	r2, #4
 187 0024 074B     		ldr	r3, .L15+4
 188 0026 1A60     		str	r2, [r3]
 189              	.L11:
 190              	.LBE2:
  93:main.c        ****     }
  94:main.c        ****     
  95:main.c        ****     
ARM GAS  C:\Users\Ryan\AppData\Local\Temp\ccqC6Dda.s 			page 6


  96:main.c        ****     if( (itrCause&UART_INTR_CAUSE_TX) >0){ //If this is an TX Interrupt
 191              		.loc 1 96 0
 192 0028 6307     		lsls	r3, r4, #29
 193 002a 08D5     		bpl	.L10
 194              	.LBB3:
  97:main.c        ****         
  98:main.c        ****         uint32_t tx_cause = UART_GetTxInterruptSource();
 195              		.loc 1 98 0
 196 002c 074B     		ldr	r3, .L15+12
 197 002e 1C68     		ldr	r4, [r3]
 198              	.LVL13:
  99:main.c        ****         
 100:main.c        ****         if( (tx_cause & UART_INTR_TX_UART_DONE) > 0){ //TX Transfer Complete... turn off TX_ENABLE
 199              		.loc 1 100 0
 200 0030 A305     		lsls	r3, r4, #22
 201 0032 02D5     		bpl	.L14
 101:main.c        ****             TX_EN_Write(0); //De-Assert TX Enable - Listen
 202              		.loc 1 101 0
 203 0034 0020     		movs	r0, #0
 204 0036 FFF7FEFF 		bl	TX_EN_Write
 205              	.LVL14:
 206              	.L14:
 102:main.c        ****         }
 103:main.c        ****         
 104:main.c        ****         /*if( (tx_cause & UART_INTR_TX_EMPTY) == 0){ //If TX Buffer has content - Grab TX_ENABLE
 105:main.c        ****             TX_EN_Write(1); //Assert TX Enable - Talk
 106:main.c        ****         }*/ //TODO: Not working! Fix!
 107:main.c        ****         
 108:main.c        ****         UART_CLEAR_INTR_TX(tx_cause);
 207              		.loc 1 108 0
 208 003a 044B     		ldr	r3, .L15+12
 209 003c 1C60     		str	r4, [r3]
 210              	.LVL15:
 211              	.L10:
 212              	.LBE3:
 109:main.c        ****     }
 110:main.c        ****         
 111:main.c        ****     
 112:main.c        ****     
 113:main.c        ****     
 114:main.c        **** }
 213              		.loc 1 114 0
 214              		@ sp needed
 215 003e 70BD     		pop	{r4, r5, r6, pc}
 216              	.L16:
 217              		.align	2
 218              	.L15:
 219 0040 000E0840 		.word	1074269696
 220 0044 C00F0840 		.word	1074270144
 221 0048 00000000 		.word	Mod
 222 004c 800F0840 		.word	1074270080
 223              		.cfi_endproc
 224              	.LFE36:
 225              		.size	UART_HANDLER, .-UART_HANDLER
 226              		.global	__aeabi_ui2f
 227              		.global	__aeabi_fdiv
 228              		.global	__aeabi_uidiv
ARM GAS  C:\Users\Ryan\AppData\Local\Temp\ccqC6Dda.s 			page 7


 229              		.section	.text.main,"ax",%progbits
 230              		.align	2
 231              		.global	main
 232              		.code	16
 233              		.thumb_func
 234              		.type	main, %function
 235              	main:
 236              	.LFB37:
 115:main.c        **** 
 116:main.c        **** 
 117:main.c        **** 
 118:main.c        **** 
 119:main.c        **** 
 120:main.c        **** 
 121:main.c        **** /*void UART_sendString( const char8 string[]){
 122:main.c        ****     
 123:main.c        ****     TX_EN_Write(1); //Assert TX Enable - Speak to Bus
 124:main.c        ****     UART_UartPutString(string);
 125:main.c        ****     
 126:main.c        **** }
 127:main.c        **** 
 128:main.c        **** void UART_senduint32( uint32_t thisval){
 129:main.c        ****     char thischar[15] = "              ";
 130:main.c        ****     itoa(thisval,thischar,10); //convert to string
 131:main.c        ****     UART_sendString(thischar); //print using helper function
 132:main.c        **** }*/
 133:main.c        ****     
 134:main.c        **** 
 135:main.c        **** /*******************************************************************************
 136:main.c        **** * Function Name: main
 137:main.c        **** ********************************************************************************
 138:main.c        **** *
 139:main.c        **** * Summary:
 140:main.c        **** *  Main function.
 141:main.c        **** *
 142:main.c        **** * Parameters:  
 143:main.c        **** *  None
 144:main.c        **** *
 145:main.c        **** * Return: 
 146:main.c        **** *  None
 147:main.c        **** *
 148:main.c        **** *******************************************************************************/
 149:main.c        **** 
 150:main.c        **** #define MODBUS_DO_INTERVAL 1
 151:main.c        **** #define LED_BLINK_INTERVAL 500
 152:main.c        **** #define MOTOR_INTERVAL 5000
 153:main.c        **** #define CONTROL_TIME 25
 154:main.c        **** 
 155:main.c        **** 
 156:main.c        **** #define HOLD_STATE 0
 157:main.c        **** #define HOLD_SPD_P 1
 158:main.c        **** #define HOLD_SPD_I 2
 159:main.c        **** #define HOLD_POS_P 3
 160:main.c        **** #define HOLD_POS_I 4
 161:main.c        **** #define HOLD_NUDGE 5
 162:main.c        **** #define HOLD_ABSGO 6
 163:main.c        **** 
ARM GAS  C:\Users\Ryan\AppData\Local\Temp\ccqC6Dda.s 			page 8


 164:main.c        **** 
 165:main.c        **** //#define PPR 2160  //Number of pulses per rotation, Gear Ratio = 1:45, Encoder = 48PPR
 166:main.c        **** #define PPR 540  //Number of pulses per rotation, Gear Ratio = 1:45, Encoder = 48PPR || For some re
 167:main.c        **** 
 168:main.c        **** int main()
 169:main.c        **** {
 237              		.loc 1 169 0
 238              		.cfi_startproc
 239              		@ args = 0, pretend = 0, frame = 24
 240              		@ frame_needed = 0, uses_anonymous_args = 0
 241 0000 F0B5     		push	{r4, r5, r6, r7, lr}
 242              		.cfi_def_cfa_offset 20
 243              		.cfi_offset 4, -20
 244              		.cfi_offset 5, -16
 245              		.cfi_offset 6, -12
 246              		.cfi_offset 7, -8
 247              		.cfi_offset 14, -4
 248 0002 4746     		mov	r7, r8
 249 0004 80B4     		push	{r7}
 250              		.cfi_def_cfa_offset 24
 251              		.cfi_offset 8, -24
 252 0006 88B0     		sub	sp, sp, #32
 253              		.cfi_def_cfa_offset 56
 170:main.c        ****     /* Start PWM Interrupts and Peripherals*/
 171:main.c        ****     M1_ISR_StartEx(MOT1_HANDLER);
 254              		.loc 1 171 0
 255 0008 7148     		ldr	r0, .L27
 256 000a FFF7FEFF 		bl	M1_ISR_StartEx
 257              	.LVL16:
 172:main.c        ****     M1_ISR_SetPriority(DEFAULT_PRIORITY);// Changes initial priority for the SYSTICK interrupt
 258              		.loc 1 172 0
 259 000e 0320     		movs	r0, #3
 260 0010 FFF7FEFF 		bl	M1_ISR_SetPriority
 261              	.LVL17:
 173:main.c        ****     
 174:main.c        ****     M2_ISR_StartEx(MOT2_HANDLER);
 262              		.loc 1 174 0
 263 0014 6F48     		ldr	r0, .L27+4
 264 0016 FFF7FEFF 		bl	M2_ISR_StartEx
 265              	.LVL18:
 175:main.c        ****     M2_ISR_SetPriority(DEFAULT_PRIORITY);// Changes initial priority for the SYSTICK interrupt
 266              		.loc 1 175 0
 267 001a 0320     		movs	r0, #3
 268 001c FFF7FEFF 		bl	M2_ISR_SetPriority
 269              	.LVL19:
 176:main.c        **** 
 177:main.c        ****     M1_PWM_Start();
 270              		.loc 1 177 0
 271 0020 FFF7FEFF 		bl	M1_PWM_Start
 272              	.LVL20:
 178:main.c        ****     M2_PWM_Start();
 273              		.loc 1 178 0
 274 0024 FFF7FEFF 		bl	M2_PWM_Start
 275              	.LVL21:
 179:main.c        ****     
 180:main.c        ****     
 181:main.c        ****     /* Start Encoder */
ARM GAS  C:\Users\Ryan\AppData\Local\Temp\ccqC6Dda.s 			page 9


 182:main.c        ****     ENC_Start();
 276              		.loc 1 182 0
 277 0028 FFF7FEFF 		bl	ENC_Start
 278              	.LVL22:
 183:main.c        ****     
 184:main.c        ****     /*Start UART Peripheral*/
 185:main.c        ****     UART_Start();
 279              		.loc 1 185 0
 280 002c FFF7FEFF 		bl	UART_Start
 281              	.LVL23:
 186:main.c        ****     UART_SetCustomInterruptHandler(UART_HANDLER);
 282              		.loc 1 186 0
 283 0030 6948     		ldr	r0, .L27+8
 284 0032 FFF7FEFF 		bl	UART_SetCustomInterruptHandler
 285              	.LVL24:
 187:main.c        ****     
 188:main.c        ****     
 189:main.c        ****     
 190:main.c        ****     /* Sets up the SYSTICK interrupt and enables it */
 191:main.c        ****     SYSTCK_ISR_StartEx(SYSTCK_HANDLER);
 286              		.loc 1 191 0
 287 0036 6948     		ldr	r0, .L27+12
 288 0038 FFF7FEFF 		bl	SYSTCK_ISR_StartEx
 289              	.LVL25:
 192:main.c        ****     SYSTCK_ISR_SetPriority(DEFAULT_PRIORITY);// Changes initial priority for the SYSTICK interrupt
 290              		.loc 1 192 0
 291 003c 0320     		movs	r0, #3
 292 003e FFF7FEFF 		bl	SYSTCK_ISR_SetPriority
 293              	.LVL26:
 193:main.c        ****     
 194:main.c        ****     SYSTCK_TIMER_Start(); //Start the SYSTICK Timer! - This Generates SYSTICK ISR EVENTS
 294              		.loc 1 194 0
 295 0042 FFF7FEFF 		bl	SYSTCK_TIMER_Start
 296              	.LVL27:
 195:main.c        ****     
 196:main.c        ****     CyGlobalIntEnable; //global interrupts enable
 297              		.loc 1 196 0
 298              		.syntax divided
 299              	@ 196 "main.c" 1
 300 0046 62B6     		CPSIE   i
 301              	@ 0 "" 2
 197:main.c        ****     
 198:main.c        ****     //uint32_t lastval = 0;
 199:main.c        ****     
 200:main.c        ****     
 201:main.c        ****     struct EEmotor* MyMot = EEmotor__create(ENC_ReadCounter());
 302              		.loc 1 201 0
 303              		.thumb
 304              		.syntax unified
 305 0048 FFF7FEFF 		bl	ENC_ReadCounter
 306              	.LVL28:
 307 004c FFF7FEFF 		bl	EEmotor__create
 308              	.LVL29:
 309 0050 0690     		str	r0, [sp, #24]
 310              	.LVL30:
 202:main.c        ****     Mod = EEmodbus__create(1); //set address to 1
 311              		.loc 1 202 0
ARM GAS  C:\Users\Ryan\AppData\Local\Temp\ccqC6Dda.s 			page 10


 312 0052 0120     		movs	r0, #1
 313              	.LVL31:
 314 0054 FFF7FEFF 		bl	EEmodbus__create
 315              	.LVL32:
 316 0058 614B     		ldr	r3, .L27+16
 317 005a 1860     		str	r0, [r3]
 318              	.LVL33:
 203:main.c        ****     
 204:main.c        ****     uint64_t modbus_millis = SYSTCK_millis;
 205:main.c        ****     uint64_t main_millis = SYSTCK_millis;
 319              		.loc 1 205 0
 320 005c 614B     		ldr	r3, .L27+20
 321 005e 5C68     		ldr	r4, [r3, #4]
 322 0060 1B68     		ldr	r3, [r3]
 323 0062 0293     		str	r3, [sp, #8]
 324 0064 0394     		str	r4, [sp, #12]
 325              	.LVL34:
 206:main.c        ****     uint64_t mot_millis = SYSTCK_millis;
 207:main.c        ****     uint64_t control_millis = SYSTCK_millis;
 326              		.loc 1 207 0
 327 0066 0493     		str	r3, [sp, #16]
 328 0068 0594     		str	r4, [sp, #20]
 329              	.LVL35:
 330              	.L18:
 208:main.c        **** 
 209:main.c        ****     for(;;){
 210:main.c        ****         
 211:main.c        ****         if(EEmodbus__getHoldingReg(Mod, HOLD_STATE) == 1){ //new command available
 331              		.loc 1 211 0
 332 006a 5D4B     		ldr	r3, .L27+16
 333 006c 1868     		ldr	r0, [r3]
 334 006e 0021     		movs	r1, #0
 335 0070 FFF7FEFF 		bl	EEmodbus__getHoldingReg
 336              	.LVL36:
 337 0074 0128     		cmp	r0, #1
 338 0076 51D1     		bne	.L19
 212:main.c        ****             EEmodbus__setHoldingReg(Mod, HOLD_STATE, 0);// reset flag
 339              		.loc 1 212 0
 340 0078 594E     		ldr	r6, .L27+16
 341 007a 0022     		movs	r2, #0
 342 007c 0021     		movs	r1, #0
 343 007e 3068     		ldr	r0, [r6]
 344 0080 FFF7FEFF 		bl	EEmodbus__setHoldingReg
 345              	.LVL37:
 213:main.c        ****             
 214:main.c        ****             EEmotor__setPIParams(MyMot, (float)EEmodbus__getHoldingReg(Mod, HOLD_SPD_I)/1000.0, (fl
 346              		.loc 1 214 0
 347 0084 0221     		movs	r1, #2
 348 0086 3068     		ldr	r0, [r6]
 349 0088 FFF7FEFF 		bl	EEmodbus__getHoldingReg
 350              	.LVL38:
 351 008c FFF7FEFF 		bl	__aeabi_ui2f
 352              	.LVL39:
 353 0090 071C     		adds	r7, r0, #0
 354 0092 0121     		movs	r1, #1
 355 0094 3068     		ldr	r0, [r6]
 356 0096 FFF7FEFF 		bl	EEmodbus__getHoldingReg
ARM GAS  C:\Users\Ryan\AppData\Local\Temp\ccqC6Dda.s 			page 11


 357              	.LVL40:
 358 009a FFF7FEFF 		bl	__aeabi_ui2f
 359              	.LVL41:
 360 009e 051C     		adds	r5, r0, #0
 361 00a0 0421     		movs	r1, #4
 362 00a2 3068     		ldr	r0, [r6]
 363 00a4 FFF7FEFF 		bl	EEmodbus__getHoldingReg
 364              	.LVL42:
 365 00a8 FFF7FEFF 		bl	__aeabi_ui2f
 366              	.LVL43:
 367 00ac 041C     		adds	r4, r0, #0
 368 00ae 0321     		movs	r1, #3
 369 00b0 3068     		ldr	r0, [r6]
 370 00b2 FFF7FEFF 		bl	EEmodbus__getHoldingReg
 371              	.LVL44:
 372 00b6 FFF7FEFF 		bl	__aeabi_ui2f
 373              	.LVL45:
 374 00ba 0790     		str	r0, [sp, #28]
 375 00bc 4A49     		ldr	r1, .L27+24
 376 00be 201C     		adds	r0, r4, #0
 377 00c0 FFF7FEFF 		bl	__aeabi_fdiv
 378              	.LVL46:
 379 00c4 041C     		adds	r4, r0, #0
 380 00c6 4849     		ldr	r1, .L27+24
 381 00c8 281C     		adds	r0, r5, #0
 382 00ca FFF7FEFF 		bl	__aeabi_fdiv
 383              	.LVL47:
 384 00ce 051C     		adds	r5, r0, #0
 385 00d0 4549     		ldr	r1, .L27+24
 386 00d2 381C     		adds	r0, r7, #0
 387 00d4 FFF7FEFF 		bl	__aeabi_fdiv
 388              	.LVL48:
 389 00d8 071C     		adds	r7, r0, #0
 390 00da 4349     		ldr	r1, .L27+24
 391 00dc 0798     		ldr	r0, [sp, #28]
 392 00de FFF7FEFF 		bl	__aeabi_fdiv
 393              	.LVL49:
 394 00e2 0090     		str	r0, [sp]
 395 00e4 231C     		adds	r3, r4, #0
 396 00e6 2A1C     		adds	r2, r5, #0
 397 00e8 391C     		adds	r1, r7, #0
 398 00ea 0698     		ldr	r0, [sp, #24]
 399 00ec FFF7FEFF 		bl	EEmotor__setPIParams
 400              	.LVL50:
 215:main.c        ****             
 216:main.c        ****             if(EEmodbus__getHoldingReg(Mod, HOLD_NUDGE) > 0){
 401              		.loc 1 216 0
 402 00f0 3068     		ldr	r0, [r6]
 403 00f2 0521     		movs	r1, #5
 404 00f4 FFF7FEFF 		bl	EEmodbus__getHoldingReg
 405              	.LVL51:
 406 00f8 0028     		cmp	r0, #0
 407 00fa 0FD0     		beq	.L19
 217:main.c        ****                 EEmotor__nudge(MyMot, (uint32_t)EEmodbus__getHoldingReg(Mod, HOLD_NUDGE)*PPR/3600);
 408              		.loc 1 217 0
 409 00fc 384B     		ldr	r3, .L27+16
 410 00fe 1868     		ldr	r0, [r3]
ARM GAS  C:\Users\Ryan\AppData\Local\Temp\ccqC6Dda.s 			page 12


 411 0100 0521     		movs	r1, #5
 412 0102 FFF7FEFF 		bl	EEmodbus__getHoldingReg
 413              	.LVL52:
 414 0106 8723     		movs	r3, #135
 415 0108 9B00     		lsls	r3, r3, #2
 416 010a 5843     		muls	r0, r3
 417 010c E121     		movs	r1, #225
 418 010e 0901     		lsls	r1, r1, #4
 419 0110 FFF7FEFF 		bl	__aeabi_uidiv
 420              	.LVL53:
 421 0114 0100     		movs	r1, r0
 422 0116 0698     		ldr	r0, [sp, #24]
 423 0118 FFF7FEFF 		bl	EEmotor__nudge
 424              	.LVL54:
 425              	.L19:
 218:main.c        ****             }
 219:main.c        ****         }
 220:main.c        ****         
 221:main.c        ****         
 222:main.c        ****         //if (modbus_millis + MODBUS_DO_INTERVAL < SYSTCK_millis){
 223:main.c        ****             EEmodbus__do(Mod, SYSTCK_millis); //check for end of packet, CALL PERIODICALLY
 426              		.loc 1 223 0
 427 011c 314E     		ldr	r6, .L27+20
 428 011e 304B     		ldr	r3, .L27+16
 429 0120 1868     		ldr	r0, [r3]
 430 0122 3168     		ldr	r1, [r6]
 431 0124 FFF7FEFF 		bl	EEmodbus__do
 432              	.LVL55:
 224:main.c        ****         /*    modbus_millis = SYSTCK_millis;
 225:main.c        ****         }*/
 226:main.c        ****         
 227:main.c        ****         
 228:main.c        ****         if(main_millis + LED_BLINK_INTERVAL < SYSTCK_millis){
 433              		.loc 1 228 0
 434 0128 FA24     		movs	r4, #250
 435 012a 6400     		lsls	r4, r4, #1
 436 012c 0025     		movs	r5, #0
 437 012e 029A     		ldr	r2, [sp, #8]
 438 0130 039B     		ldr	r3, [sp, #12]
 439 0132 A418     		adds	r4, r4, r2
 440 0134 5D41     		adcs	r5, r5, r3
 441 0136 3268     		ldr	r2, [r6]
 442 0138 7368     		ldr	r3, [r6, #4]
 443 013a AB42     		cmp	r3, r5
 444 013c 02D8     		bhi	.L25
 445 013e 0BD1     		bne	.L20
 446 0140 A242     		cmp	r2, r4
 447 0142 09D9     		bls	.L20
 448              	.L25:
 449              	.LVL56:
 229:main.c        ****             main_millis = main_millis + LED_BLINK_INTERVAL;
 230:main.c        ****             LED_ACT_Write(!LED_ACT_Read());
 450              		.loc 1 230 0
 451 0144 FFF7FEFF 		bl	LED_ACT_Read
 452              	.LVL57:
 453 0148 0300     		movs	r3, r0
 454 014a 5842     		rsbs	r0, r3, #0
ARM GAS  C:\Users\Ryan\AppData\Local\Temp\ccqC6Dda.s 			page 13


 455 014c 5841     		adcs	r0, r0, r3
 456 014e C0B2     		uxtb	r0, r0
 457 0150 FFF7FEFF 		bl	LED_ACT_Write
 458              	.LVL58:
 229:main.c        ****             main_millis = main_millis + LED_BLINK_INTERVAL;
 459              		.loc 1 229 0
 460 0154 0294     		str	r4, [sp, #8]
 461 0156 0395     		str	r5, [sp, #12]
 462              	.LVL59:
 463              	.L20:
 231:main.c        ****      
 232:main.c        ****         }
 233:main.c        **** 
 234:main.c        ****         
 235:main.c        ****         if(control_millis + CONTROL_TIME < SYSTCK_millis){
 464              		.loc 1 235 0
 465 0158 1924     		movs	r4, #25
 466 015a 0025     		movs	r5, #0
 467 015c 049A     		ldr	r2, [sp, #16]
 468 015e 059B     		ldr	r3, [sp, #20]
 469 0160 A418     		adds	r4, r4, r2
 470 0162 5D41     		adcs	r5, r5, r3
 471 0164 1F4B     		ldr	r3, .L27+20
 472 0166 1A68     		ldr	r2, [r3]
 473 0168 9046     		mov	r8, r2
 474 016a 5B68     		ldr	r3, [r3, #4]
 475 016c AB42     		cmp	r3, r5
 476 016e 04D8     		bhi	.L26
 477 0170 00D0     		beq	.LCB393
 478 0172 7AE7     		b	.L18	@long jump
 479              	.LCB393:
 480 0174 A242     		cmp	r2, r4
 481 0176 00D8     		bhi	.LCB395
 482 0178 77E7     		b	.L18	@long jump
 483              	.LCB395:
 484              	.L26:
 485              	.LVL60:
 236:main.c        ****             control_millis = control_millis + CONTROL_TIME;
 237:main.c        ****             EEmotor__run(MyMot, SYSTCK_millis, ENC_ReadCounter());
 486              		.loc 1 237 0
 487 017a FFF7FEFF 		bl	ENC_ReadCounter
 488              	.LVL61:
 489 017e 0200     		movs	r2, r0
 490 0180 4146     		mov	r1, r8
 491 0182 069E     		ldr	r6, [sp, #24]
 492 0184 3000     		movs	r0, r6
 493 0186 FFF7FEFF 		bl	EEmotor__run
 494              	.LVL62:
 238:main.c        ****             
 239:main.c        ****             if(EEmotor__getSpeedOutput(MyMot) >0){
 495              		.loc 1 239 0
 496 018a 3000     		movs	r0, r6
 497 018c FFF7FEFF 		bl	EEmotor__getSpeedOutput
 498              	.LVL63:
 499 0190 0028     		cmp	r0, #0
 500 0192 0FDD     		ble	.L24
 240:main.c        ****                 MOT2_NEXT_COMP = 0;
ARM GAS  C:\Users\Ryan\AppData\Local\Temp\ccqC6Dda.s 			page 14


 501              		.loc 1 240 0
 502 0194 134B     		ldr	r3, .L27+20
 503 0196 9846     		mov	r8, r3
 504 0198 0023     		movs	r3, #0
 505 019a 4246     		mov	r2, r8
 506 019c 5381     		strh	r3, [r2, #10]
 241:main.c        ****                 MOT1_NEXT_COMP = abs(EEmotor__getSpeedOutput(MyMot));
 507              		.loc 1 241 0
 508 019e 3000     		movs	r0, r6
 509 01a0 FFF7FEFF 		bl	EEmotor__getSpeedOutput
 510              	.LVL64:
 511 01a4 C317     		asrs	r3, r0, #31
 512 01a6 C018     		adds	r0, r0, r3
 513 01a8 5840     		eors	r0, r3
 514 01aa 4346     		mov	r3, r8
 515 01ac 1881     		strh	r0, [r3, #8]
 236:main.c        ****             EEmotor__run(MyMot, SYSTCK_millis, ENC_ReadCounter());
 516              		.loc 1 236 0
 517 01ae 0494     		str	r4, [sp, #16]
 518 01b0 0595     		str	r5, [sp, #20]
 519 01b2 5AE7     		b	.L18
 520              	.L24:
 242:main.c        ****             }else{      
 243:main.c        ****                 MOT2_NEXT_COMP = abs(EEmotor__getSpeedOutput(MyMot));
 521              		.loc 1 243 0
 522 01b4 0698     		ldr	r0, [sp, #24]
 523 01b6 FFF7FEFF 		bl	EEmotor__getSpeedOutput
 524              	.LVL65:
 525 01ba C317     		asrs	r3, r0, #31
 526 01bc C018     		adds	r0, r0, r3
 527 01be 5840     		eors	r0, r3
 528 01c0 084B     		ldr	r3, .L27+20
 529 01c2 5881     		strh	r0, [r3, #10]
 244:main.c        ****                 MOT1_NEXT_COMP = 0;
 530              		.loc 1 244 0
 531 01c4 0022     		movs	r2, #0
 532 01c6 1A81     		strh	r2, [r3, #8]
 236:main.c        ****             EEmotor__run(MyMot, SYSTCK_millis, ENC_ReadCounter());
 533              		.loc 1 236 0
 534 01c8 0494     		str	r4, [sp, #16]
 535 01ca 0595     		str	r5, [sp, #20]
 536 01cc 4DE7     		b	.L18
 537              	.L28:
 538 01ce C046     		.align	2
 539              	.L27:
 540 01d0 00000000 		.word	MOT1_HANDLER
 541 01d4 00000000 		.word	MOT2_HANDLER
 542 01d8 00000000 		.word	UART_HANDLER
 543 01dc 00000000 		.word	SYSTCK_HANDLER
 544 01e0 00000000 		.word	Mod
 545 01e4 00000000 		.word	.LANCHOR0
 546 01e8 00007A44 		.word	1148846080
 547              		.cfi_endproc
 548              	.LFE37:
 549              		.size	main, .-main
 550              		.global	modbus_check_millis
 551              		.comm	Mod,4,4
ARM GAS  C:\Users\Ryan\AppData\Local\Temp\ccqC6Dda.s 			page 15


 552              		.global	ModRX_INDEX
 553              		.global	MOT2_NEXT_COMP
 554              		.global	MOT1_NEXT_COMP
 555              		.global	SYSTCK_millis
 556              		.bss
 557              		.align	3
 558              		.set	.LANCHOR0,. + 0
 559              		.type	SYSTCK_millis, %object
 560              		.size	SYSTCK_millis, 8
 561              	SYSTCK_millis:
 562 0000 00000000 		.space	8
 562      00000000 
 563              		.type	MOT1_NEXT_COMP, %object
 564              		.size	MOT1_NEXT_COMP, 2
 565              	MOT1_NEXT_COMP:
 566 0008 0000     		.space	2
 567              		.type	MOT2_NEXT_COMP, %object
 568              		.size	MOT2_NEXT_COMP, 2
 569              	MOT2_NEXT_COMP:
 570 000a 0000     		.space	2
 571 000c 00000000 		.space	4
 572              		.type	modbus_check_millis, %object
 573              		.size	modbus_check_millis, 8
 574              	modbus_check_millis:
 575 0010 00000000 		.space	8
 575      00000000 
 576              		.type	ModRX_INDEX, %object
 577              		.size	ModRX_INDEX, 1
 578              	ModRX_INDEX:
 579 0018 00       		.space	1
 580              		.text
 581              	.Letext0:
 582              		.file 2 "c:\\program files (x86)\\cypress\\psoc creator\\4.4\\psoc creator\\import\\gnu\\arm\\5.4.
 583              		.file 3 "c:\\program files (x86)\\cypress\\psoc creator\\4.4\\psoc creator\\import\\gnu\\arm\\5.4.
 584              		.file 4 "Generated_Source\\PSoC4/cytypes.h"
 585              		.file 5 "Generated_Source\\PSoC4/SYSTCK_ISR.h"
 586              		.file 6 "Generated_Source\\PSoC4/SYSTCK_TIMER.h"
 587              		.file 7 "Generated_Source\\PSoC4/M1_PWM.h"
 588              		.file 8 "Generated_Source\\PSoC4/M1_ISR.h"
 589              		.file 9 "Generated_Source\\PSoC4/M2_PWM.h"
 590              		.file 10 "Generated_Source\\PSoC4/M2_ISR.h"
 591              		.file 11 "Generated_Source\\PSoC4/UART_SPI_UART.h"
 592              		.file 12 "EEmodbus.h"
 593              		.file 13 "Generated_Source\\PSoC4/TX_EN.h"
 594              		.file 14 "Generated_Source\\PSoC4/ENC.h"
 595              		.file 15 "Generated_Source\\PSoC4/UART.h"
 596              		.file 16 "EEmotor.h"
 597              		.file 17 "Generated_Source\\PSoC4/LED_ACT.h"