ARM GAS  C:\Users\Ryan\AppData\Local\Temp\ccX7BrTn.s 			page 1


   1              		.syntax unified
   2              		.cpu cortex-m0plus
   3              		.fpu softvfp
   4              		.eabi_attribute 20, 1
   5              		.eabi_attribute 21, 1
   6              		.eabi_attribute 23, 3
   7              		.eabi_attribute 24, 1
   8              		.eabi_attribute 25, 1
   9              		.eabi_attribute 26, 1
  10              		.eabi_attribute 30, 1
  11              		.eabi_attribute 34, 0
  12              		.eabi_attribute 18, 4
  13              		.thumb
  14              		.syntax unified
  15              		.file	"Modbus.c"
  16              		.text
  17              	.Ltext0:
  18              		.cfi_sections	.debug_frame
  19              		.section	.text.generateCRC,"ax",%progbits
  20              		.align	2
  21              		.global	generateCRC
  22              		.code	16
  23              		.thumb_func
  24              		.type	generateCRC, %function
  25              	generateCRC:
  26              	.LFB33:
  27              		.file 1 "Modbus.c"
   1:Modbus.c      **** #include <project.h>
   2:Modbus.c      **** #include <ModbusData.h>
   3:Modbus.c      **** #include <Modbus.h>
   4:Modbus.c      **** 
   5:Modbus.c      **** //#include <cydevice_trm.h>
   6:Modbus.c      **** //#include <CyLib.h>
   7:Modbus.c      **** 
   8:Modbus.c      **** /**************************************************************************************************
   9:Modbus.c      ****         these global variables must be in an external file(s)  ( ProjectData.c ) 
  10:Modbus.c      ****  **************************************************************************************************
  11:Modbus.c      **** //#define SlaveAddress 1 //Change this to whatever you want	
  12:Modbus.c      **** #define CHECK_BIT(var,pos) !!((var)&(1 << (pos)))
  13:Modbus.c      **** extern unsigned char  inputCoils[];  	// –≥–¥–µ-—Ç–æ –µ—Å—Ç—å inputCoils  —Å –¥–∞–Ω–Ω—ã–º–∏    ( Da
  14:Modbus.c      **** extern unsigned int  holdingReg[];  	// –≥–¥–µ-—Ç–æ –µ—Å—Ç—å holdingReg  —Å –¥–∞–Ω–Ω—ã–º–∏    ( Dat
  15:Modbus.c      **** extern unsigned int    inputReg[];  	// –≥–¥–µ-—Ç–æ –µ—Å—Ç—å   inputReg  —Å –¥–∞–Ω–Ω—ã–º–∏    ( Dat
  16:Modbus.c      **** extern unsigned char      coils[];  	// –≥–¥–µ-—Ç–æ –µ—Å—Ç—å      coils  —Å –¥–∞–Ω–Ω—ã–º–∏    ( Dat
  17:Modbus.c      **** extern unsigned char   received[];		// –≥–¥–µ-—Ç–æ –µ—Å—Ç—å  –±—É—Ñ–µ—Ä  –ø—Ä–∏–µ–º–∞    		( DataAn
  18:Modbus.c      **** extern unsigned char   response[]; 		// –≥–¥–µ-—Ç–æ –µ—Å—Ç—å  –±—É—Ñ–µ—Ä  –ø–µ—Ä–µ–¥–∞—á–∏   		( Da
  19:Modbus.c      **** extern volatile uint8 messageLength ;	// —Å—á–µ—Ç—á–∏–∫ –¥–ª–∏–Ω—ã —Å–æ–æ–±—â–µ–Ω–∏–π		( DataAndFun
  20:Modbus.c      **** /**************************************************************************************************
  21:Modbus.c      **** 
  22:Modbus.c      **** unsigned int     DataBuff[128];  		// –º–∞—Å—Å–∏–≤ –ø–æ–¥–≥–æ—Ç–æ–≤–∫–∏ –¥–∞–Ω–Ω—ã—Ö –¥–ª—è –æ—Ç–ø—
  23:Modbus.c      **** 
  24:Modbus.c      **** 
  25:Modbus.c      **** //
  26:Modbus.c      **** //typedef enum  /************  MODBUS	ERRORs  **********************************************/
  27:Modbus.c      **** //{   NO_ERROR    = 0x00,
  28:Modbus.c      **** //    NO_Address  = 0x01,
  29:Modbus.c      **** //    NO_Resoonse = 0x02,
  30:Modbus.c      **** //	NO_Device   = 0x03,
ARM GAS  C:\Users\Ryan\AppData\Local\Temp\ccX7BrTn.s 			page 2


  31:Modbus.c      **** //	CRC_ERROR   = 0x04
  32:Modbus.c      **** //} ErrorsCode;//.............................. 
  33:Modbus.c      ****  
  34:Modbus.c      **** 
  35:Modbus.c      **** typedef enum  /************  MODBUS	ERRORs  **********************************************/
  36:Modbus.c      **** {   NO_ERROR             = 0x00,
  37:Modbus.c      ****     ILLEGAL_FUNCTION     = 0x01,	// –ü—Ä–∏–Ω—è—Ç—ã–π –∫–æ–¥ —Ñ—É–Ω–∫—Ü–∏–∏ –Ω–µ –ø–æ–¥–¥–µ—Ä–∂–∏–≤–
  38:Modbus.c      ****     ILLEGAL_DATA_ADDRESS = 0x02,	// –ê–¥—Ä–µ—Å –¥–∞–Ω–Ω—ã—Ö —É–∫–∞–∑–∞–Ω–Ω—ã–π –≤ –∑–∞–ø—Ä–æ—Å–µ –Ω
  39:Modbus.c      **** 	ILLEGAL_DATA_VALUE   = 0x03, 	// –í–µ–ª–∏—á–∏–Ω–∞ –≤ –ø–æ–ª–µ –¥–∞–Ω–Ω—ã—Ö –∑–∞–ø—Ä–æ—Å–∞ –Ω–µ–¥–æ
  40:Modbus.c      **** 	SLAVE_DEVICE_FAILURE = 0x04		// –ù–µ–≤–æ—Å—Å—Ç–∞–Ω–∞–≤–ª–∏–≤–∞–µ–º–∞—è –æ—à–∏–±–∫–∞ –≤–æ –≤—Ä–µ–º—
  41:Modbus.c      **** 						 //0x05 ‚Äî —É—Å—Ç—Ä–æ–π—Å—Ç–≤–æ  –æ–±—Ä–∞–±–∞—Ç—ã–≤–∞–µ—Ç –∑–∞–ø—Ä–æ—Å,(–ø—Ä–µ–¥–æ—Ö—Ä–∞–Ω—è
  42:Modbus.c      **** 						 //0x06 ‚Äî  —É—Å—Ç—Ä–æ–π—Å—Ç–≤–æ –∑–∞–Ω—è—Ç–æ  –ø–æ–≤—Ç–æ—Ä–∏—Ç—å —Å–æ–æ–±—â–µ–Ω–∏–µ –ø–æ–∑–
  43:Modbus.c      **** 						 //0x07 ‚Äî  —É—Å—Ç—Ä–æ–π—Å—Ç–≤–æ –Ω–µ –º–æ–∂–µ—Ç –≤—ã–ø–æ–ª–Ω–∏—Ç—å –ø—Ä–æ–≥—Ä–∞–º–º–Ω—É—é —
  44:Modbus.c      **** 						 //0x08 ‚Äî –í–µ–¥–æ–º–æ–µ —É—Å—Ç—Ä–æ–π—Å—Ç–≤–æ –ø—Ä–∏ —á—Ç–µ–Ω–∏–∏ —Ä–∞—Å—à–∏—Ä–µ–Ω–Ω–æ–π –ø
  45:Modbus.c      **** 
  46:Modbus.c      **** 
  47:Modbus.c      **** } ErrorsCode;//.............................. 
  48:Modbus.c      **** 
  49:Modbus.c      **** 
  50:Modbus.c      **** 
  51:Modbus.c      **** 
  52:Modbus.c      **** /***************************************************************************************
  53:Modbus.c      **** *               Optimized CRC-16 calculation.
  54:Modbus.c      **** *      Polynomial: x^16 + x^15 + x^2 + 1 (0xA001)
  55:Modbus.c      **** *   Initial value: 0xffff
  56:Modbus.c      **** *    http://www.nongnu.org/avr-libc/user-manual/group__util__crc.html
  57:Modbus.c      **** ****************************************************************************************/
  58:Modbus.c      **** unsigned int generateCRC(unsigned char messageLength)
  59:Modbus.c      **** {
  28              		.loc 1 59 0
  29              		.cfi_startproc
  30              		@ args = 0, pretend = 0, frame = 0
  31              		@ frame_needed = 0, uses_anonymous_args = 0
  32              	.LVL0:
  33 0000 10B5     		push	{r4, lr}
  34              		.cfi_def_cfa_offset 8
  35              		.cfi_offset 4, -8
  36              		.cfi_offset 14, -4
  37              	.LVL1:
  60:Modbus.c      **** unsigned int crc     = 0xFFFF;
  61:Modbus.c      **** int i,j = 0;
  62:Modbus.c      **** 
  63:Modbus.c      ****   for(i=0;i<messageLength-2;i++){
  38              		.loc 1 63 0
  39 0002 0024     		movs	r4, #0
  60:Modbus.c      **** unsigned int crc     = 0xFFFF;
  40              		.loc 1 60 0
  41 0004 0D4B     		ldr	r3, .L8
  42              		.loc 1 63 0
  43 0006 0FE0     		b	.L2
  44              	.LVL2:
  45              	.L7:
  64:Modbus.c      ****     crc ^= response[i];
  46              		.loc 1 64 0
  47 0008 0D4A     		ldr	r2, .L8+4
  48 000a 125D     		ldrb	r2, [r2, r4]
  49 000c 5340     		eors	r3, r2
ARM GAS  C:\Users\Ryan\AppData\Local\Temp\ccX7BrTn.s 			page 3


  50              	.LVL3:
  65:Modbus.c      ****     for(j=8; j!=0; j--)
  51              		.loc 1 65 0
  52 000e 0822     		movs	r2, #8
  53 0010 07E0     		b	.L3
  54              	.LVL4:
  55              	.L6:
  66:Modbus.c      **** 	{
  67:Modbus.c      ****       if((crc & 0x0001))  { crc >>= 1;  crc ^= 0xA001; }
  56              		.loc 1 67 0
  57 0012 D907     		lsls	r1, r3, #31
  58 0014 03D5     		bpl	.L4
  59              		.loc 1 67 0 is_stmt 0 discriminator 1
  60 0016 5B08     		lsrs	r3, r3, #1
  61              	.LVL5:
  62 0018 0A49     		ldr	r1, .L8+8
  63 001a 4B40     		eors	r3, r1
  64              	.LVL6:
  65 001c 00E0     		b	.L5
  66              	.L4:
  68:Modbus.c      ****       else                { crc >>= 1;                 }
  67              		.loc 1 68 0 is_stmt 1
  68 001e 5B08     		lsrs	r3, r3, #1
  69              	.LVL7:
  70              	.L5:
  65:Modbus.c      ****     for(j=8; j!=0; j--)
  71              		.loc 1 65 0 discriminator 2
  72 0020 013A     		subs	r2, r2, #1
  73              	.LVL8:
  74              	.L3:
  65:Modbus.c      ****     for(j=8; j!=0; j--)
  75              		.loc 1 65 0 is_stmt 0 discriminator 1
  76 0022 002A     		cmp	r2, #0
  77 0024 F5D1     		bne	.L6
  63:Modbus.c      ****     crc ^= response[i];
  78              		.loc 1 63 0 is_stmt 1 discriminator 2
  79 0026 0134     		adds	r4, r4, #1
  80              	.LVL9:
  81              	.L2:
  63:Modbus.c      ****     crc ^= response[i];
  82              		.loc 1 63 0 is_stmt 0 discriminator 1
  83 0028 821E     		subs	r2, r0, #2
  84 002a 9442     		cmp	r4, r2
  85 002c ECDB     		blt	.L7
  69:Modbus.c      ****     }
  70:Modbus.c      ****   }
  71:Modbus.c      **** crc = (crc<<8)|((crc&0xFF00) >>8);	// –ø–µ—Ä–µ—Å—Ç–∞–Ω–æ–≤–∫–∞ –±–∞–π—Ç
  86              		.loc 1 71 0 is_stmt 1
  87 002e 1A02     		lsls	r2, r3, #8
  88 0030 1B0A     		lsrs	r3, r3, #8
  89              	.LVL10:
  90 0032 FF20     		movs	r0, #255
  91              	.LVL11:
  92 0034 0340     		ands	r3, r0
  93 0036 1A43     		orrs	r2, r3
  94 0038 1000     		movs	r0, r2
  95              	.LVL12:
ARM GAS  C:\Users\Ryan\AppData\Local\Temp\ccX7BrTn.s 			page 4


  72:Modbus.c      **** return crc;
  73:Modbus.c      **** }//..........................
  96              		.loc 1 73 0
  97              		@ sp needed
  98              	.LVL13:
  99 003a 10BD     		pop	{r4, pc}
 100              	.L9:
 101              		.align	2
 102              	.L8:
 103 003c FFFF0000 		.word	65535
 104 0040 00000000 		.word	response
 105 0044 01A00000 		.word	40961
 106              		.cfi_endproc
 107              	.LFE33:
 108              		.size	generateCRC, .-generateCRC
 109              		.section	.text.checkCRC,"ax",%progbits
 110              		.align	2
 111              		.global	checkCRC
 112              		.code	16
 113              		.thumb_func
 114              		.type	checkCRC, %function
 115              	checkCRC:
 116              	.LFB34:
  74:Modbus.c      **** 
  75:Modbus.c      **** 
  76:Modbus.c      **** 
  77:Modbus.c      **** /*********************************************************************************************  
  78:Modbus.c      **** 						checkCRC   
  79:Modbus.c      **** **********************************************************************************************/
  80:Modbus.c      **** unsigned char checkCRC(void)			// –ø–µ—Ä–µ–¥ –æ—Ç–≤–µ—Ç–æ–º —Å–Ω–∞—á–∞–ª–∞  checkCRC –ø–æ—Ç–æ–º  ge
  81:Modbus.c      **** {
 117              		.loc 1 81 0
 118              		.cfi_startproc
 119              		@ args = 0, pretend = 0, frame = 0
 120              		@ frame_needed = 0, uses_anonymous_args = 0
 121              		@ link register save eliminated.
 122              	.LVL14:
  82:Modbus.c      ****   unsigned int crc = 0xFFFF;
  83:Modbus.c      ****   unsigned int crcHigh, crcLow =0;
  84:Modbus.c      ****   int i,j = 0;
  85:Modbus.c      **** 
  86:Modbus.c      ****     for(i=0;i<messageLength-2;i++)		// –¥–ª—è –≤—Å–µ—Ö –±–∞–π—Ç —Å–æ–æ–±—â–µ–Ω–∏—è –∫—Ä–æ–º–µ CRC –
 123              		.loc 1 86 0
 124 0000 0020     		movs	r0, #0
  82:Modbus.c      ****   unsigned int crc = 0xFFFF;
 125              		.loc 1 82 0
 126 0002 154B     		ldr	r3, .L20
 127              		.loc 1 86 0
 128 0004 0FE0     		b	.L11
 129              	.LVL15:
 130              	.L16:
  87:Modbus.c      **** 	{
  88:Modbus.c      ****       crc ^= received[i];
 131              		.loc 1 88 0
 132 0006 154A     		ldr	r2, .L20+4
 133 0008 125C     		ldrb	r2, [r2, r0]
 134 000a 5340     		eors	r3, r2
ARM GAS  C:\Users\Ryan\AppData\Local\Temp\ccX7BrTn.s 			page 5


 135              	.LVL16:
  89:Modbus.c      ****       for(j=8; j!=0; j--)
 136              		.loc 1 89 0
 137 000c 0822     		movs	r2, #8
 138 000e 07E0     		b	.L12
 139              	.LVL17:
 140              	.L15:
  90:Modbus.c      **** 	{
  91:Modbus.c      ****         if((crc & 0x0001))  { crc = (crc >> 1)^0xA001; }
 141              		.loc 1 91 0
 142 0010 D907     		lsls	r1, r3, #31
 143 0012 03D5     		bpl	.L13
 144              		.loc 1 91 0 is_stmt 0 discriminator 1
 145 0014 5B08     		lsrs	r3, r3, #1
 146              	.LVL18:
 147 0016 1249     		ldr	r1, .L20+8
 148 0018 4B40     		eors	r3, r1
 149              	.LVL19:
 150 001a 00E0     		b	.L14
 151              	.L13:
  92:Modbus.c      ****         else	            { crc >>= 1;               }
 152              		.loc 1 92 0 is_stmt 1
 153 001c 5B08     		lsrs	r3, r3, #1
 154              	.LVL20:
 155              	.L14:
  89:Modbus.c      ****       for(j=8; j!=0; j--)
 156              		.loc 1 89 0 discriminator 2
 157 001e 013A     		subs	r2, r2, #1
 158              	.LVL21:
 159              	.L12:
  89:Modbus.c      ****       for(j=8; j!=0; j--)
 160              		.loc 1 89 0 is_stmt 0 discriminator 1
 161 0020 002A     		cmp	r2, #0
 162 0022 F5D1     		bne	.L15
  86:Modbus.c      **** 	{
 163              		.loc 1 86 0 is_stmt 1 discriminator 2
 164 0024 0130     		adds	r0, r0, #1
 165              	.LVL22:
 166              	.L11:
  86:Modbus.c      **** 	{
 167              		.loc 1 86 0 is_stmt 0 discriminator 1
 168 0026 0F4A     		ldr	r2, .L20+12
 169 0028 1278     		ldrb	r2, [r2]
 170 002a 023A     		subs	r2, r2, #2
 171 002c 9042     		cmp	r0, r2
 172 002e EADB     		blt	.L16
  93:Modbus.c      ****       }
  94:Modbus.c      ****     }
  95:Modbus.c      ****   //bytes are wrong way round so doing a swap here..
  96:Modbus.c      ****   crcHigh = (crc & 0x00FF);				 
 173              		.loc 1 96 0 is_stmt 1
 174 0030 FF22     		movs	r2, #255
 175 0032 1100     		movs	r1, r2
 176 0034 1940     		ands	r1, r3
 177              	.LVL23:
  97:Modbus.c      ****   crcLow = (crc & 0xFF00) >>8;
 178              		.loc 1 97 0
ARM GAS  C:\Users\Ryan\AppData\Local\Temp\ccX7BrTn.s 			page 6


 179 0036 1B0A     		lsrs	r3, r3, #8
 180              	.LVL24:
 181 0038 1340     		ands	r3, r2
 182              	.LVL25:
  98:Modbus.c      ****   if((crcHigh == received[i])&&(crcLow == received[i+1]))  	{ return 1;  }	// –°—Ä–∞–≤–Ω–∏–º —Å CRC
 183              		.loc 1 98 0
 184 003a 084A     		ldr	r2, .L20+4
 185 003c 125C     		ldrb	r2, [r2, r0]
 186 003e 9142     		cmp	r1, r2
 187 0040 06D1     		bne	.L18
 188              		.loc 1 98 0 is_stmt 0 discriminator 1
 189 0042 0130     		adds	r0, r0, #1
 190              	.LVL26:
 191 0044 054A     		ldr	r2, .L20+4
 192 0046 125C     		ldrb	r2, [r2, r0]
 193 0048 9342     		cmp	r3, r2
 194 004a 03D0     		beq	.L19
  99:Modbus.c      ****   else														{ return 0;  }
 195              		.loc 1 99 0 is_stmt 1
 196 004c 0020     		movs	r0, #0
 197              	.LVL27:
 198 004e 02E0     		b	.L17
 199              	.LVL28:
 200              	.L18:
 201 0050 0020     		movs	r0, #0
 202              	.LVL29:
 203 0052 00E0     		b	.L17
 204              	.LVL30:
 205              	.L19:
  98:Modbus.c      ****   if((crcHigh == received[i])&&(crcLow == received[i+1]))  	{ return 1;  }	// –°—Ä–∞–≤–Ω–∏–º —Å CRC
 206              		.loc 1 98 0
 207 0054 0120     		movs	r0, #1
 208              	.LVL31:
 209              	.L17:
 100:Modbus.c      **** }//..........................
 210              		.loc 1 100 0
 211              		@ sp needed
 212 0056 7047     		bx	lr
 213              	.L21:
 214              		.align	2
 215              	.L20:
 216 0058 FFFF0000 		.word	65535
 217 005c 00000000 		.word	received
 218 0060 01A00000 		.word	40961
 219 0064 00000000 		.word	messageLength
 220              		.cfi_endproc
 221              	.LFE34:
 222              		.size	checkCRC, .-checkCRC
 223              		.section	.text.readCoil,"ax",%progbits
 224              		.align	2
 225              		.global	readCoil
 226              		.code	16
 227              		.thumb_func
 228              		.type	readCoil, %function
 229              	readCoil:
 230              	.LFB35:
 101:Modbus.c      **** 
ARM GAS  C:\Users\Ryan\AppData\Local\Temp\ccX7BrTn.s 			page 7


 102:Modbus.c      **** 
 103:Modbus.c      **** 
 104:Modbus.c      **** /****************************************************************************************
 105:Modbus.c      **** *  –ø–æ–¥–ø—Ä–æ–≥—Ä–∞–º–º–∞  —á—Ç–µ–Ω–∏—è –∑–Ω–∞—á–µ–Ω–∏—è –≤—ã—Ö–æ–¥–Ω—ã—Ö / –≤–Ω—É—Ç—Ä–µ–Ω–Ω–∏—Ö 
 106:Modbus.c      **** *****************************************************************************************/
 107:Modbus.c      ****  /*            
 108:Modbus.c      **** –ö–æ–¥—ã —Ñ—É–Ω–∫—Ü–∏–π:  01 -–¥–ª—è  coils  –∏ 01 –¥–ª—è inputcoils
 109:Modbus.c      **** received[2] -  –ê–¥—Ä–µ—Å –Ω–∞—á–∞–ª—å–Ω–æ–≥–æ Coil(Hi)    
 110:Modbus.c      **** received[3] -  –ê–¥—Ä–µ—Å –Ω–∞—á–∞–ª—å–Ω–æ–≥–æ Coil(Lo)
 111:Modbus.c      **** received[4] -  –ö–æ–ª–∏—á–µ—Å—Ç–≤–æ Coils(Hi)        
 112:Modbus.c      **** received[5] -  –ö–æ–ª–∏—á–µ—Å—Ç–≤–æ Coils(Lo)
 113:Modbus.c      **** ********************************************************************************/
 114:Modbus.c      **** 
 115:Modbus.c      **** void readCoil(void)
 116:Modbus.c      **** {
 231              		.loc 1 116 0
 232              		.cfi_startproc
 233              		@ args = 0, pretend = 0, frame = 0
 234              		@ frame_needed = 0, uses_anonymous_args = 0
 235 0000 F8B5     		push	{r3, r4, r5, r6, r7, lr}
 236              		.cfi_def_cfa_offset 24
 237              		.cfi_offset 3, -24
 238              		.cfi_offset 4, -20
 239              		.cfi_offset 5, -16
 240              		.cfi_offset 6, -12
 241              		.cfi_offset 7, -8
 242              		.cfi_offset 14, -4
 243              	.LVL32:
 117:Modbus.c      **** /******************************************************************************/
 118:Modbus.c      **** /* Reads a coil and then responds                                             */
 119:Modbus.c      **** /******************************************************************************/
 120:Modbus.c      ****   unsigned int rc_Address  = 0;		// –∞–¥—Ä–µ—Å –ø–µ—Ä–≤–æ–≥–æ —Ä–µ–≥–∏—Å—Ç—Ä–∞
 121:Modbus.c      ****   unsigned int rc_numCoils = 0;		// —á–∏—Å–ª–æ —Ä–µ–≥–∏—Å—Ç—Ä–æ–≤
 122:Modbus.c      ****   unsigned int crc = 0;
 123:Modbus.c      **** 
 124:Modbus.c      ****   unsigned char howManyBytes = 0;
 125:Modbus.c      ****   unsigned char lsb,i,j,l = 0;
 126:Modbus.c      ****   unsigned char  k = 3;				//start at response[3]
 127:Modbus.c      **** 	
 128:Modbus.c      ****   rc_Address =  (received[2]<<8)|received[3]; 	// Combine address bytes	  –ê–¥—Ä–µ—Å –Ω–∞—á–∞–ª—å–Ω
 244              		.loc 1 128 0
 245 0002 234A     		ldr	r2, .L29
 246 0004 D178     		ldrb	r1, [r2, #3]
 247              	.LVL33:
 129:Modbus.c      ****   rc_numCoils = (received[4]<<8)|received[5];	//Combine number of coils bytes    –ö–æ–ª–∏—á–µ—Å—Ç–≤
 248              		.loc 1 129 0
 249 0006 1379     		ldrb	r3, [r2, #4]
 250 0008 1B02     		lsls	r3, r3, #8
 251 000a 5479     		ldrb	r4, [r2, #5]
 252 000c 2343     		orrs	r3, r4
 253              	.LVL34:
 130:Modbus.c      **** 
 131:Modbus.c      ****   response[0] = SlaveAddress;		// —É—Å—Ç–∞–Ω–æ–≤–∏—Ç—å –∞–¥—Ä–µ—Å —É—Å—Ç—Ä–æ–π—Å—Ç–≤–∞ –≤ –æ—Ç–≤–µ—
 254              		.loc 1 131 0
 255 000e 214A     		ldr	r2, .L29+4
 256 0010 2148     		ldr	r0, .L29+8
 257 0012 0078     		ldrb	r0, [r0]
ARM GAS  C:\Users\Ryan\AppData\Local\Temp\ccX7BrTn.s 			page 8


 258 0014 1070     		strb	r0, [r2]
 132:Modbus.c      ****   response[1] = 0x01;				// –∫–æ–¥ –∫–æ–º–∞–Ω–¥—ã (01)
 259              		.loc 1 132 0
 260 0016 0120     		movs	r0, #1
 261 0018 5070     		strb	r0, [r2, #1]
 133:Modbus.c      **** 
 134:Modbus.c      ****   howManyBytes = rc_numCoils/8 + rc_numCoils%8;		// —Å–∫–æ–ª—å–∫–æ —Ü–µ–ª—ã—Ö –±–∞–π—Ç –Ω—É–∂–Ω–æ –
 262              		.loc 1 134 0
 263 001a DC08     		lsrs	r4, r3, #3
 264 001c 0630     		adds	r0, r0, #6
 265 001e 0340     		ands	r3, r0
 266              	.LVL35:
 267 0020 1B19     		adds	r3, r3, r4
 268 0022 DCB2     		uxtb	r4, r3
 269              	.LVL36:
 135:Modbus.c      ****   response[2] = howManyBytes ;
 270              		.loc 1 135 0
 271 0024 9470     		strb	r4, [r2, #2]
 272              	.LVL37:
 126:Modbus.c      **** 	
 273              		.loc 1 126 0
 274 0026 0325     		movs	r5, #3
 136:Modbus.c      **** 
 137:Modbus.c      ****   l = rc_Address;									// –Ω–∞—á–Ω–µ–º —Å —ç—Ç–æ–≥–æ –∞–¥—Ä–µ—Å–∞
 138:Modbus.c      **** 
 139:Modbus.c      ****  for(i=howManyBytes; i!=0; i--){	//—É–ø–∞–∫–æ–≤–∫–∞ –≤ –±–∞–π—Ç—ã
 275              		.loc 1 139 0
 276 0028 18E0     		b	.L23
 277              	.LVL38:
 278              	.L26:
 140:Modbus.c      **** 	 response[k] = 0;							// —á–∏—Å—Ç–∏–º –±–∞–π—Ç –æ—Ç–≤–µ—Ç–∞
 279              		.loc 1 140 0
 280 002a 2F00     		movs	r7, r5
 281 002c 0022     		movs	r2, #0
 282 002e 194B     		ldr	r3, .L29+4
 283 0030 5A55     		strb	r2, [r3, r5]
 284              	.LVL39:
 141:Modbus.c      **** 	 for(j=0;j<8;j++)// –¥–ª—è –∫–∞–∂–¥–æ–≥–æ –±–∏—Ç–∞
 285              		.loc 1 141 0
 286 0032 0DE0     		b	.L24
 287              	.LVL40:
 288              	.L25:
 142:Modbus.c      **** 		{
 143:Modbus.c      ****          lsb = (coils[l]!=0);					// —É—Å—Ç–∞–Ω–∞–≤–ª–∏–≤–∞–µ–º —Ç–µ–∫—É—â–∏–π –±–∏—Ç
 289              		.loc 1 143 0 discriminator 3
 290 0034 194B     		ldr	r3, .L29+12
 291 0036 5B5C     		ldrb	r3, [r3, r1]
 292 0038 581E     		subs	r0, r3, #1
 293 003a 8341     		sbcs	r3, r3, r0
 294 003c DBB2     		uxtb	r3, r3
 295              	.LVL41:
 144:Modbus.c      **** 		 response[k] = (lsb << j)|response[k];	// response[k] ^= (lsb << j); 
 296              		.loc 1 144 0 discriminator 3
 297 003e 9340     		lsls	r3, r3, r2
 298              	.LVL42:
 299 0040 144E     		ldr	r6, .L29+4
 300 0042 F05D     		ldrb	r0, [r6, r7]
ARM GAS  C:\Users\Ryan\AppData\Local\Temp\ccX7BrTn.s 			page 9


 301 0044 0343     		orrs	r3, r0
 302 0046 F355     		strb	r3, [r6, r7]
 145:Modbus.c      **** 		 l++;									// —Å–ª–µ–¥—É—é—â–∏–π  coil
 303              		.loc 1 145 0 discriminator 3
 304 0048 0131     		adds	r1, r1, #1
 305              	.LVL43:
 306 004a C9B2     		uxtb	r1, r1
 307              	.LVL44:
 141:Modbus.c      **** 		{
 308              		.loc 1 141 0 discriminator 3
 309 004c 0132     		adds	r2, r2, #1
 310              	.LVL45:
 311 004e D2B2     		uxtb	r2, r2
 312              	.LVL46:
 313              	.L24:
 141:Modbus.c      **** 		{
 314              		.loc 1 141 0 is_stmt 0 discriminator 1
 315 0050 072A     		cmp	r2, #7
 316 0052 EFD9     		bls	.L25
 146:Modbus.c      ****         }
 147:Modbus.c      **** 	 k++; // —Å–ª–µ–¥—É—é—â–∏–π –±–∞–π—Ç
 317              		.loc 1 147 0 is_stmt 1 discriminator 2
 318 0054 0135     		adds	r5, r5, #1
 319              	.LVL47:
 320 0056 EDB2     		uxtb	r5, r5
 321              	.LVL48:
 139:Modbus.c      **** 	 response[k] = 0;							// —á–∏—Å—Ç–∏–º –±–∞–π—Ç –æ—Ç–≤–µ—Ç–∞
 322              		.loc 1 139 0 discriminator 2
 323 0058 013C     		subs	r4, r4, #1
 324              	.LVL49:
 325 005a E4B2     		uxtb	r4, r4
 326              	.LVL50:
 327              	.L23:
 139:Modbus.c      **** 	 response[k] = 0;							// —á–∏—Å—Ç–∏–º –±–∞–π—Ç –æ—Ç–≤–µ—Ç–∞
 328              		.loc 1 139 0 is_stmt 0 discriminator 1
 329 005c 002C     		cmp	r4, #0
 330 005e E4D1     		bne	.L26
 148:Modbus.c      ****   }
 149:Modbus.c      **** crc = generateCRC(k+2);		// –≤—ã—á–∏—Å–ª—è–µ–º  CRC
 331              		.loc 1 149 0 is_stmt 1
 332 0060 A81C     		adds	r0, r5, #2
 333 0062 C0B2     		uxtb	r0, r0
 334 0064 FFF7FEFF 		bl	generateCRC
 335              	.LVL51:
 150:Modbus.c      **** response[k] = crc >> 8;		// —Å—Ç–∞—Ä—à–∏–π –±–∞–π—Ç CRC 
 336              		.loc 1 150 0
 337 0068 2E00     		movs	r6, r5
 338 006a 020A     		lsrs	r2, r0, #8
 339 006c 094B     		ldr	r3, .L29+4
 340 006e 5A55     		strb	r2, [r3, r5]
 151:Modbus.c      **** response[k+1] = crc;		// –º–ª–∞–¥—à–∏–π –±–∞–π—Ç CRC 
 341              		.loc 1 151 0
 342 0070 0135     		adds	r5, r5, #1
 343              	.LVL52:
 344 0072 5855     		strb	r0, [r3, r5]
 152:Modbus.c      **** 
 153:Modbus.c      **** TX_EN_Write(1); //Assert TX Enable - Speak to Bus
ARM GAS  C:\Users\Ryan\AppData\Local\Temp\ccX7BrTn.s 			page 10


 345              		.loc 1 153 0
 346 0074 0120     		movs	r0, #1
 347              	.LVL53:
 348 0076 FFF7FEFF 		bl	TX_EN_Write
 349              	.LVL54:
 154:Modbus.c      **** for(i=0;i!=k+2;i++){  UART_UartPutChar(response[i]);  }	// –æ—Ç–ø—Ä–∞–≤–ª—è–µ–º —Å–æ–æ–±—â–µ–Ω–∏–µ
 350              		.loc 1 154 0
 351 007a 05E0     		b	.L27
 352              	.LVL55:
 353              	.L28:
 354              		.loc 1 154 0 is_stmt 0 discriminator 3
 355 007c 054B     		ldr	r3, .L29+4
 356 007e 185D     		ldrb	r0, [r3, r4]
 357 0080 FFF7FEFF 		bl	UART_SpiUartWriteTxData
 358              	.LVL56:
 359 0084 0134     		adds	r4, r4, #1
 360              	.LVL57:
 361 0086 E4B2     		uxtb	r4, r4
 362              	.LVL58:
 363              	.L27:
 364              		.loc 1 154 0 discriminator 1
 365 0088 B31C     		adds	r3, r6, #2
 366 008a 9C42     		cmp	r4, r3
 367 008c F6D1     		bne	.L28
 155:Modbus.c      **** }
 368              		.loc 1 155 0 is_stmt 1
 369              		@ sp needed
 370              	.LVL59:
 371 008e F8BD     		pop	{r3, r4, r5, r6, r7, pc}
 372              	.L30:
 373              		.align	2
 374              	.L29:
 375 0090 00000000 		.word	received
 376 0094 00000000 		.word	response
 377 0098 00000000 		.word	SlaveAddress
 378 009c 00000000 		.word	coils
 379              		.cfi_endproc
 380              	.LFE35:
 381              		.size	readCoil, .-readCoil
 382              		.section	.text.readInputCoil,"ax",%progbits
 383              		.align	2
 384              		.global	readInputCoil
 385              		.code	16
 386              		.thumb_func
 387              		.type	readInputCoil, %function
 388              	readInputCoil:
 389              	.LFB36:
 156:Modbus.c      **** 
 157:Modbus.c      **** void readInputCoil(void)
 158:Modbus.c      **** {
 390              		.loc 1 158 0
 391              		.cfi_startproc
 392              		@ args = 0, pretend = 0, frame = 0
 393              		@ frame_needed = 0, uses_anonymous_args = 0
 394 0000 F8B5     		push	{r3, r4, r5, r6, r7, lr}
 395              		.cfi_def_cfa_offset 24
 396              		.cfi_offset 3, -24
ARM GAS  C:\Users\Ryan\AppData\Local\Temp\ccX7BrTn.s 			page 11


 397              		.cfi_offset 4, -20
 398              		.cfi_offset 5, -16
 399              		.cfi_offset 6, -12
 400              		.cfi_offset 7, -8
 401              		.cfi_offset 14, -4
 402              	.LVL60:
 159:Modbus.c      **** /******************************************************************************/
 160:Modbus.c      **** /* Reads a coil and then responds                                             */
 161:Modbus.c      **** /******************************************************************************/
 162:Modbus.c      ****   unsigned int rc_Address  = 0;		// –∞–¥—Ä–µ—Å –ø–µ—Ä–≤–æ–≥–æ —Ä–µ–≥–∏—Å—Ç—Ä–∞
 163:Modbus.c      ****   unsigned int rc_numCoils = 0;		// —á–∏—Å–ª–æ —Ä–µ–≥–∏—Å—Ç—Ä–æ–≤
 164:Modbus.c      ****   unsigned int crc = 0;
 165:Modbus.c      **** 
 166:Modbus.c      ****   unsigned char howManyBytes = 0;
 167:Modbus.c      ****   unsigned char lsb,i,j,l = 0;
 168:Modbus.c      ****   unsigned char  k = 3;				//start at response[3]
 169:Modbus.c      **** 	
 170:Modbus.c      ****   rc_Address =  (received[2]<<8)|received[3]; 	// Combine address bytes	  –ê–¥—Ä–µ—Å –Ω–∞—á–∞–ª—å–Ω
 403              		.loc 1 170 0
 404 0002 234A     		ldr	r2, .L38
 405 0004 D178     		ldrb	r1, [r2, #3]
 406              	.LVL61:
 171:Modbus.c      ****   rc_numCoils = (received[4]<<8)|received[5];	//Combine number of coils bytes    –ö–æ–ª–∏—á–µ—Å—Ç–≤
 407              		.loc 1 171 0
 408 0006 1379     		ldrb	r3, [r2, #4]
 409 0008 1B02     		lsls	r3, r3, #8
 410 000a 5479     		ldrb	r4, [r2, #5]
 411 000c 2343     		orrs	r3, r4
 412              	.LVL62:
 172:Modbus.c      **** 
 173:Modbus.c      ****   response[0] = SlaveAddress;		// —É—Å—Ç–∞–Ω–æ–≤–∏—Ç—å –∞–¥—Ä–µ—Å —É—Å—Ç—Ä–æ–π—Å—Ç–≤–∞ –≤ –æ—Ç–≤–µ—
 413              		.loc 1 173 0
 414 000e 214A     		ldr	r2, .L38+4
 415 0010 2148     		ldr	r0, .L38+8
 416 0012 0078     		ldrb	r0, [r0]
 417 0014 1070     		strb	r0, [r2]
 174:Modbus.c      ****   response[1] = 0x02;				// –∫–æ–¥ –∫–æ–º–∞–Ω–¥—ã (01)
 418              		.loc 1 174 0
 419 0016 0220     		movs	r0, #2
 420 0018 5070     		strb	r0, [r2, #1]
 175:Modbus.c      **** 
 176:Modbus.c      ****   howManyBytes = rc_numCoils/8 + rc_numCoils%8;		// —Å–∫–æ–ª—å–∫–æ —Ü–µ–ª—ã—Ö –±–∞–π—Ç –Ω—É–∂–Ω–æ –
 421              		.loc 1 176 0
 422 001a DC08     		lsrs	r4, r3, #3
 423 001c 0530     		adds	r0, r0, #5
 424 001e 0340     		ands	r3, r0
 425              	.LVL63:
 426 0020 1B19     		adds	r3, r3, r4
 427 0022 DCB2     		uxtb	r4, r3
 428              	.LVL64:
 177:Modbus.c      ****   response[2] = howManyBytes ;
 429              		.loc 1 177 0
 430 0024 9470     		strb	r4, [r2, #2]
 431              	.LVL65:
 168:Modbus.c      **** 	
 432              		.loc 1 168 0
 433 0026 0325     		movs	r5, #3
ARM GAS  C:\Users\Ryan\AppData\Local\Temp\ccX7BrTn.s 			page 12


 178:Modbus.c      **** 
 179:Modbus.c      ****   l = rc_Address;									// –Ω–∞—á–Ω–µ–º —Å —ç—Ç–æ–≥–æ –∞–¥—Ä–µ—Å–∞
 180:Modbus.c      **** 
 181:Modbus.c      ****  for(i=howManyBytes; i!=0; i--){	//—É–ø–∞–∫–æ–≤–∫–∞ –≤ –±–∞–π—Ç—ã
 434              		.loc 1 181 0
 435 0028 18E0     		b	.L32
 436              	.LVL66:
 437              	.L35:
 182:Modbus.c      **** 	 response[k] = 0;							// —á–∏—Å—Ç–∏–º –±–∞–π—Ç –æ—Ç–≤–µ—Ç–∞
 438              		.loc 1 182 0
 439 002a 2F00     		movs	r7, r5
 440 002c 0022     		movs	r2, #0
 441 002e 194B     		ldr	r3, .L38+4
 442 0030 5A55     		strb	r2, [r3, r5]
 443              	.LVL67:
 183:Modbus.c      **** 	 for(j=0;j<8;j++)// –¥–ª—è –∫–∞–∂–¥–æ–≥–æ –±–∏—Ç–∞
 444              		.loc 1 183 0
 445 0032 0DE0     		b	.L33
 446              	.LVL68:
 447              	.L34:
 184:Modbus.c      **** 		{
 185:Modbus.c      ****          lsb = (inputCoils[l]!=0);					// —É—Å—Ç–∞–Ω–∞–≤–ª–∏–≤–∞–µ–º —Ç–µ–∫—É—â–∏–π –±–∏—Ç
 448              		.loc 1 185 0 discriminator 3
 449 0034 194B     		ldr	r3, .L38+12
 450 0036 5B5C     		ldrb	r3, [r3, r1]
 451 0038 581E     		subs	r0, r3, #1
 452 003a 8341     		sbcs	r3, r3, r0
 453 003c DBB2     		uxtb	r3, r3
 454              	.LVL69:
 186:Modbus.c      **** 		 response[k] = (lsb << j)|response[k];	// response[k] ^= (lsb << j); 
 455              		.loc 1 186 0 discriminator 3
 456 003e 9340     		lsls	r3, r3, r2
 457              	.LVL70:
 458 0040 144E     		ldr	r6, .L38+4
 459 0042 F05D     		ldrb	r0, [r6, r7]
 460 0044 0343     		orrs	r3, r0
 461 0046 F355     		strb	r3, [r6, r7]
 187:Modbus.c      **** 		 l++;									// —Å–ª–µ–¥—É—é—â–∏–π  coil
 462              		.loc 1 187 0 discriminator 3
 463 0048 0131     		adds	r1, r1, #1
 464              	.LVL71:
 465 004a C9B2     		uxtb	r1, r1
 466              	.LVL72:
 183:Modbus.c      **** 		{
 467              		.loc 1 183 0 discriminator 3
 468 004c 0132     		adds	r2, r2, #1
 469              	.LVL73:
 470 004e D2B2     		uxtb	r2, r2
 471              	.LVL74:
 472              	.L33:
 183:Modbus.c      **** 		{
 473              		.loc 1 183 0 is_stmt 0 discriminator 1
 474 0050 072A     		cmp	r2, #7
 475 0052 EFD9     		bls	.L34
 188:Modbus.c      ****         }
 189:Modbus.c      **** 	 k++; // —Å–ª–µ–¥—É—é—â–∏–π –±–∞–π—Ç
 476              		.loc 1 189 0 is_stmt 1 discriminator 2
ARM GAS  C:\Users\Ryan\AppData\Local\Temp\ccX7BrTn.s 			page 13


 477 0054 0135     		adds	r5, r5, #1
 478              	.LVL75:
 479 0056 EDB2     		uxtb	r5, r5
 480              	.LVL76:
 181:Modbus.c      **** 	 response[k] = 0;							// —á–∏—Å—Ç–∏–º –±–∞–π—Ç –æ—Ç–≤–µ—Ç–∞
 481              		.loc 1 181 0 discriminator 2
 482 0058 013C     		subs	r4, r4, #1
 483              	.LVL77:
 484 005a E4B2     		uxtb	r4, r4
 485              	.LVL78:
 486              	.L32:
 181:Modbus.c      **** 	 response[k] = 0;							// —á–∏—Å—Ç–∏–º –±–∞–π—Ç –æ—Ç–≤–µ—Ç–∞
 487              		.loc 1 181 0 is_stmt 0 discriminator 1
 488 005c 002C     		cmp	r4, #0
 489 005e E4D1     		bne	.L35
 190:Modbus.c      ****   }
 191:Modbus.c      **** crc = generateCRC(k+2);		// –≤—ã—á–∏—Å–ª—è–µ–º    CRC
 490              		.loc 1 191 0 is_stmt 1
 491 0060 A81C     		adds	r0, r5, #2
 492 0062 C0B2     		uxtb	r0, r0
 493 0064 FFF7FEFF 		bl	generateCRC
 494              	.LVL79:
 192:Modbus.c      **** response[k] = crc >> 8;		// —Å—Ç–∞—Ä—à–∏–π –±–∞–π—Ç CRC 
 495              		.loc 1 192 0
 496 0068 2E00     		movs	r6, r5
 497 006a 020A     		lsrs	r2, r0, #8
 498 006c 094B     		ldr	r3, .L38+4
 499 006e 5A55     		strb	r2, [r3, r5]
 193:Modbus.c      **** response[k+1] = crc;		// –º–ª–∞–¥—à–∏–π –±–∞–π—Ç CRC 
 500              		.loc 1 193 0
 501 0070 0135     		adds	r5, r5, #1
 502              	.LVL80:
 503 0072 5855     		strb	r0, [r3, r5]
 194:Modbus.c      **** TX_EN_Write(1); //Assert TX Enable - Speak to Bus
 504              		.loc 1 194 0
 505 0074 0120     		movs	r0, #1
 506              	.LVL81:
 507 0076 FFF7FEFF 		bl	TX_EN_Write
 508              	.LVL82:
 195:Modbus.c      **** for(i=0;i!=k+2;i++){  UART_UartPutChar(response[i]);  }	// –æ—Ç–ø—Ä–∞–≤–ª—è–µ–º —Å–æ–æ–±—â–µ–Ω–∏–µ
 509              		.loc 1 195 0
 510 007a 05E0     		b	.L36
 511              	.LVL83:
 512              	.L37:
 513              		.loc 1 195 0 is_stmt 0 discriminator 3
 514 007c 054B     		ldr	r3, .L38+4
 515 007e 185D     		ldrb	r0, [r3, r4]
 516 0080 FFF7FEFF 		bl	UART_SpiUartWriteTxData
 517              	.LVL84:
 518 0084 0134     		adds	r4, r4, #1
 519              	.LVL85:
 520 0086 E4B2     		uxtb	r4, r4
 521              	.LVL86:
 522              	.L36:
 523              		.loc 1 195 0 discriminator 1
 524 0088 B31C     		adds	r3, r6, #2
 525 008a 9C42     		cmp	r4, r3
ARM GAS  C:\Users\Ryan\AppData\Local\Temp\ccX7BrTn.s 			page 14


 526 008c F6D1     		bne	.L37
 196:Modbus.c      **** }
 527              		.loc 1 196 0 is_stmt 1
 528              		@ sp needed
 529              	.LVL87:
 530 008e F8BD     		pop	{r3, r4, r5, r6, r7, pc}
 531              	.L39:
 532              		.align	2
 533              	.L38:
 534 0090 00000000 		.word	received
 535 0094 00000000 		.word	response
 536 0098 00000000 		.word	SlaveAddress
 537 009c 00000000 		.word	inputCoils
 538              		.cfi_endproc
 539              	.LFE36:
 540              		.size	readInputCoil, .-readInputCoil
 541              		.section	.text.checAddr,"ax",%progbits
 542              		.align	2
 543              		.global	checAddr
 544              		.code	16
 545              		.thumb_func
 546              		.type	checAddr, %function
 547              	checAddr:
 548              	.LFB37:
 197:Modbus.c      **** 
 198:Modbus.c      **** 
 199:Modbus.c      **** 
 200:Modbus.c      **** unsigned int checAddr( unsigned char  comm, unsigned int*  DeviceReg,  unsigned int  numRegs )    
 201:Modbus.c      **** {	
 549              		.loc 1 201 0
 550              		.cfi_startproc
 551              		@ args = 0, pretend = 0, frame = 0
 552              		@ frame_needed = 0, uses_anonymous_args = 0
 553              	.LVL88:
 554 0000 10B5     		push	{r4, lr}
 555              		.cfi_def_cfa_offset 8
 556              		.cfi_offset 4, -8
 557              		.cfi_offset 14, -4
 558              	.LVL89:
 202:Modbus.c      ****  unsigned int i=0;
 203:Modbus.c      ****  if( *DeviceReg > 1000) return ILLEGAL_DATA_ADDRESS; 		// –ø—Ä–∏–º–µ—Ä –æ–≥—Ä–∞–Ω–∏—á–µ–Ω–∏—è –ø–æ 
 559              		.loc 1 203 0
 560 0002 FA23     		movs	r3, #250
 561 0004 9B00     		lsls	r3, r3, #2
 562 0006 0C68     		ldr	r4, [r1]
 563 0008 9C42     		cmp	r4, r3
 564 000a 21D8     		bhi	.L46
 204:Modbus.c      ****  if(    numRegs > 127 ) return ILLEGAL_DATA_ADDRESS;    	// –æ–≥—Ä–∞–Ω–∏—á–µ–Ω–∏–µ –¥–ª–∏–Ω—ã –∑–∞–
 565              		.loc 1 204 0
 566 000c 7F2A     		cmp	r2, #127
 567 000e 21D8     		bhi	.L47
 205:Modbus.c      ****  	if(   comm ==0x03) 
 568              		.loc 1 205 0
 569 0010 0328     		cmp	r0, #3
 570 0012 0BD0     		beq	.L48
 571 0014 0022     		movs	r2, #0
 572              	.LVL90:
ARM GAS  C:\Users\Ryan\AppData\Local\Temp\ccX7BrTn.s 			page 15


 573 0016 17E0     		b	.L43
 574              	.LVL91:
 575              	.L44:
 206:Modbus.c      **** 		{	// –¥–ª—è –∫–æ–º–∞–Ω–¥—ã    void readReg(void);	
 207:Modbus.c      **** 			// –∑–¥–µ—Å—å –≤ –±—É—Ñ–µ—Ä –æ—Ç–ø—Ä–∞–≤–∫–∏ —Å–∫–ª–∞–¥—ã–≤–∞—é—Ç—Å—è –∑–∞–ø—Ä–æ—à–µ–Ω—ã–µ –¥–∞–
 208:Modbus.c      **** 			for(i=0;i< 128;  i++)    {DataBuff[i] = holdingReg[*DeviceReg+i];}	// –¥–æ–±–∞–≤–∏—Ç—å —Å–≤–æ–π 
 576              		.loc 1 208 0 discriminator 3
 577 0018 0B68     		ldr	r3, [r1]
 578 001a D318     		adds	r3, r2, r3
 579 001c 9B00     		lsls	r3, r3, #2
 580 001e 0E48     		ldr	r0, .L49
 581 0020 1C58     		ldr	r4, [r3, r0]
 582 0022 9000     		lsls	r0, r2, #2
 583 0024 0D4B     		ldr	r3, .L49+4
 584 0026 C450     		str	r4, [r0, r3]
 585 0028 0132     		adds	r2, r2, #1
 586              	.LVL92:
 587 002a 00E0     		b	.L42
 588              	.LVL93:
 589              	.L48:
 590 002c 0022     		movs	r2, #0
 591              	.LVL94:
 592              	.L42:
 593              		.loc 1 208 0 is_stmt 0 discriminator 1
 594 002e 7F2A     		cmp	r2, #127
 595 0030 F2D9     		bls	.L44
 209:Modbus.c      **** 		}
 210:Modbus.c      ****  	else
 211:Modbus.c      **** 		{// –¥–ª—è –∫–æ–º–∞–Ω–¥—ã    void readInputReg(void);
 212:Modbus.c      **** 		 for(i=0;i< 128;  i++)    {DataBuff[i] = inputReg[*DeviceReg+i];}	// // –¥–æ–±–∞–≤–∏—Ç—å —Å–≤–æ–π
 213:Modbus.c      ****         }	
 214:Modbus.c      **** return NO_ERROR;
 596              		.loc 1 214 0 is_stmt 1
 597 0032 0020     		movs	r0, #0
 598 0034 0FE0     		b	.L41
 599              	.L45:
 212:Modbus.c      ****         }	
 600              		.loc 1 212 0 discriminator 3
 601 0036 0B68     		ldr	r3, [r1]
 602 0038 D318     		adds	r3, r2, r3
 603 003a 9B00     		lsls	r3, r3, #2
 604 003c 0848     		ldr	r0, .L49+8
 605 003e 1C58     		ldr	r4, [r3, r0]
 606 0040 9000     		lsls	r0, r2, #2
 607 0042 064B     		ldr	r3, .L49+4
 608 0044 C450     		str	r4, [r0, r3]
 609 0046 0132     		adds	r2, r2, #1
 610              	.LVL95:
 611              	.L43:
 212:Modbus.c      ****         }	
 612              		.loc 1 212 0 is_stmt 0 discriminator 1
 613 0048 7F2A     		cmp	r2, #127
 614 004a F4D9     		bls	.L45
 615              		.loc 1 214 0 is_stmt 1
 616 004c 0020     		movs	r0, #0
 617 004e 02E0     		b	.L41
 618              	.LVL96:
ARM GAS  C:\Users\Ryan\AppData\Local\Temp\ccX7BrTn.s 			page 16


 619              	.L46:
 203:Modbus.c      ****  if(    numRegs > 127 ) return ILLEGAL_DATA_ADDRESS;    	// –æ–≥—Ä–∞–Ω–∏—á–µ–Ω–∏–µ –¥–ª–∏–Ω—ã –∑–∞–
 620              		.loc 1 203 0
 621 0050 0220     		movs	r0, #2
 622              	.LVL97:
 623 0052 00E0     		b	.L41
 624              	.LVL98:
 625              	.L47:
 204:Modbus.c      ****  	if(   comm ==0x03) 
 626              		.loc 1 204 0
 627 0054 0220     		movs	r0, #2
 628              	.LVL99:
 629              	.L41:
 215:Modbus.c      **** }//..................
 630              		.loc 1 215 0
 631              		@ sp needed
 632 0056 10BD     		pop	{r4, pc}
 633              	.L50:
 634              		.align	2
 635              	.L49:
 636 0058 00000000 		.word	holdingReg
 637 005c 00000000 		.word	DataBuff
 638 0060 00000000 		.word	inputReg
 639              		.cfi_endproc
 640              	.LFE37:
 641              		.size	checAddr, .-checAddr
 642              		.section	.text.getRegisters,"ax",%progbits
 643              		.align	2
 644              		.global	getRegisters
 645              		.code	16
 646              		.thumb_func
 647              		.type	getRegisters, %function
 648              	getRegisters:
 649              	.LFB38:
 216:Modbus.c      **** 
 217:Modbus.c      **** 
 218:Modbus.c      **** /****************************************************************************************
 219:Modbus.c      **** *  –ø–æ–¥–ø—Ä–æ–≥—Ä–∞–º–º–∞  —á—Ç–µ–Ω–∏—è –∑–Ω–∞—á–µ–Ω–∏—è –≤—ã—Ö–æ–¥–Ω—ã—Ö / –≤–Ω—É—Ç—Ä–µ–Ω–Ω–∏—Ö 
 220:Modbus.c      **** *****************************************************************************************/
 221:Modbus.c      ****  /*            
 222:Modbus.c      **** –ö–æ–¥—ã —Ñ—É–Ω–∫—Ü–∏–π:  03 -–¥–ª—è  holdingReg  –∏ 04 –¥–ª—è inputReg
 223:Modbus.c      **** received[2] -  –ê–¥—Ä–µ—Å –Ω–∞—á–∞–ª—å–Ω–æ–≥–æ —Ä–µ–≥–∏—Å—Ç—Ä–∞(Hi)    
 224:Modbus.c      **** received[3] -  –ê–¥—Ä–µ—Å –Ω–∞—á–∞–ª—å–Ω–æ–≥–æ —Ä–µ–≥–∏—Å—Ç—Ä–∞(Lo)
 225:Modbus.c      **** received[4] -  –ö–æ–ª–∏—á–µ—Å—Ç–≤–æ —Ä–µ–≥–∏—Å—Ç—Ä–æ–≤(Hi)        
 226:Modbus.c      **** received[5] -  –ö–æ–ª–∏—á–µ—Å—Ç–≤–æ —Ä–µ–≥–∏—Å—Ç—Ä–æ–≤ (Lo)
 227:Modbus.c      **** ********************************************************************************/
 228:Modbus.c      **** void getRegisters(unsigned char comm){
 650              		.loc 1 228 0
 651              		.cfi_startproc
 652              		@ args = 0, pretend = 0, frame = 8
 653              		@ frame_needed = 0, uses_anonymous_args = 0
 654              	.LVL100:
 655 0000 70B5     		push	{r4, r5, r6, lr}
 656              		.cfi_def_cfa_offset 16
 657              		.cfi_offset 4, -16
 658              		.cfi_offset 5, -12
 659              		.cfi_offset 6, -8
ARM GAS  C:\Users\Ryan\AppData\Local\Temp\ccX7BrTn.s 			page 17


 660              		.cfi_offset 14, -4
 661 0002 82B0     		sub	sp, sp, #8
 662              		.cfi_def_cfa_offset 24
 663 0004 0400     		movs	r4, r0
 664              	.LVL101:
 229:Modbus.c      ****   int err =NO_ERROR;			// —Ñ–ª–∞–≥ –æ—à–∏–±–æ–∫
 230:Modbus.c      ****   unsigned int rr_Address = 0;	// –∞–¥—Ä–µ—Å –ø–µ—Ä–≤–æ–≥–æ —Ä–µ–≥–∏—Å—Ç—Ä–∞ 
 231:Modbus.c      ****   unsigned int rr_numRegs = 0;	// —á–∏—Å–ª–æ —Ä–µ–≥–∏—Å—Ç—Ä–æ–≤
 232:Modbus.c      ****   unsigned char  j = 3;			// response[3] - –±–∞–π—Ç(Hi) –ø–µ—Ä–≤–æ–≥–æ  –≤—ã–≤–æ–¥–∏–º–æ–≥–æ —Ä–µ–≥
 233:Modbus.c      ****   unsigned int crc = 0;
 234:Modbus.c      ****   unsigned int   i = 0;
 235:Modbus.c      ****  
 236:Modbus.c      ****   rr_Address = (received[2]<<8)| received[3]; 	// –ê–¥—Ä–µ—Å –Ω–∞—á–∞–ª—å–Ω–æ–≥–æ —Ä–µ–≥–∏—Å—Ç—Ä–∞ 
 665              		.loc 1 236 0
 666 0006 234A     		ldr	r2, .L58
 667 0008 9378     		ldrb	r3, [r2, #2]
 668 000a 1B02     		lsls	r3, r3, #8
 669 000c D178     		ldrb	r1, [r2, #3]
 670 000e 0B43     		orrs	r3, r1
 671 0010 0193     		str	r3, [sp, #4]
 237:Modbus.c      ****   rr_numRegs =  (received[4]<<8)|received[5]; 	// –ö–æ–ª–∏—á–µ—Å—Ç–≤–æ —Ä–µ–≥–∏—Å—Ç—Ä–æ–≤ 
 672              		.loc 1 237 0
 673 0012 1579     		ldrb	r5, [r2, #4]
 674 0014 2D02     		lsls	r5, r5, #8
 675 0016 5379     		ldrb	r3, [r2, #5]
 676 0018 1D43     		orrs	r5, r3
 677              	.LVL102:
 238:Modbus.c      **** 
 239:Modbus.c      ****   err = checAddr(comm,&rr_Address,rr_numRegs );	// –ø—Ä–æ–≤–µ—Ä—è–µ–º –Ω–∞–ª–∏—á–∏–µ —Ä–µ–≥–∏—Å—Ç—Ä
 678              		.loc 1 239 0
 679 001a 2A00     		movs	r2, r5
 680 001c 01A9     		add	r1, sp, #4
 681 001e FFF7FEFF 		bl	checAddr
 682              	.LVL103:
 240:Modbus.c      **** 
 241:Modbus.c      **** // --------—Å–æ–±–∏—Ä–∞–µ–º –æ—Ç–≤–µ—Ç------------
 242:Modbus.c      ****   response[0] = SlaveAddress;					// —É—Å—Ç–∞–Ω–æ–≤–∏—Ç—å –∞–¥—Ä–µ—Å —É—Å—Ç—Ä–æ–π—Å—Ç–≤–∞ –≤ –æ—Ç–≤
 683              		.loc 1 242 0
 684 0022 1D4B     		ldr	r3, .L58+4
 685 0024 1D4A     		ldr	r2, .L58+8
 686 0026 1278     		ldrb	r2, [r2]
 687 0028 1A70     		strb	r2, [r3]
 243:Modbus.c      ****   response[1] = comm;							// –∫–æ–¥ –∫–æ–º–∞–Ω–¥—ã (03 –∏–ª–∏ 04)
 688              		.loc 1 243 0
 689 002a 5C70     		strb	r4, [r3, #1]
 244:Modbus.c      ****   response[2] = rr_numRegs*2; 					// 2 bytes per reg  - –±–∞–π—Ç –¥–∞–Ω–Ω—ã—Ö –≤ –æ—Ç–≤–µ—Ç–µ  
 690              		.loc 1 244 0
 691 002c 6A00     		lsls	r2, r5, #1
 692 002e 9A70     		strb	r2, [r3, #2]
 245:Modbus.c      **** 
 246:Modbus.c      ****  
 247:Modbus.c      **** 
 248:Modbus.c      **** if (err == NO_ERROR)	// —Ä–µ–≥–∏—Å—Ç—Ä—ã —Å—É—â–µ—Å—Ç–≤—É—é—Ç –∏ —Å–∫–æ–ø–∏—Ä–æ–≤–∞–Ω—ã –≤ –±—É—Ñ–µ
 693              		.loc 1 248 0
 694 0030 0028     		cmp	r0, #0
 695 0032 0DD0     		beq	.L56
 696 0034 11E0     		b	.L57
ARM GAS  C:\Users\Ryan\AppData\Local\Temp\ccX7BrTn.s 			page 18


 697              	.LVL104:
 698              	.L54:
 249:Modbus.c      **** 	{  
 250:Modbus.c      **** 	  for(i=0;i< rr_numRegs;  i++){	// –∑–∞–ø–æ–ª–Ω—è–µ–º –æ—Ç–≤–µ—Ç —Å–∫–æ–ø–∏—Ä–æ–≤–∞–Ω—ã–º–∏ –≤ –±—
 251:Modbus.c      ****       response[j] = DataBuff[i] >> 8;	j++;			// —Å—Ç–∞—Ä—à–∏–π –±–∞–π—Ç (–Ω–∞—á–∏–Ω–∞–µ–º —Å J =3 )
 699              		.loc 1 251 0 discriminator 3
 700 0036 9900     		lsls	r1, r3, #2
 701 0038 194A     		ldr	r2, .L58+12
 702 003a 8858     		ldr	r0, [r1, r2]
 703 003c 020A     		lsrs	r2, r0, #8
 704 003e 1649     		ldr	r1, .L58+4
 705 0040 0A55     		strb	r2, [r1, r4]
 706 0042 621C     		adds	r2, r4, #1
 707 0044 D2B2     		uxtb	r2, r2
 708              	.LVL105:
 252:Modbus.c      ****       response[j] = DataBuff[i];     	j++;}			// –º–ª–∞–¥—à–∏–π –±–∞–π—Ç
 709              		.loc 1 252 0 discriminator 3
 710 0046 8854     		strb	r0, [r1, r2]
 711 0048 0234     		adds	r4, r4, #2
 712 004a E4B2     		uxtb	r4, r4
 713              	.LVL106:
 250:Modbus.c      ****       response[j] = DataBuff[i] >> 8;	j++;			// —Å—Ç–∞—Ä—à–∏–π –±–∞–π—Ç (–Ω–∞—á–∏–Ω–∞–µ–º —Å J =3 )
 714              		.loc 1 250 0 discriminator 3
 715 004c 0133     		adds	r3, r3, #1
 716              	.LVL107:
 717 004e 01E0     		b	.L52
 718              	.LVL108:
 719              	.L56:
 720 0050 0023     		movs	r3, #0
 721 0052 0324     		movs	r4, #3
 722              	.LVL109:
 723              	.L52:
 250:Modbus.c      ****       response[j] = DataBuff[i] >> 8;	j++;			// —Å—Ç–∞—Ä—à–∏–π –±–∞–π—Ç (–Ω–∞—á–∏–Ω–∞–µ–º —Å J =3 )
 724              		.loc 1 250 0 is_stmt 0 discriminator 1
 725 0054 AB42     		cmp	r3, r5
 726 0056 EED3     		bcc	.L54
 727 0058 07E0     		b	.L55
 728              	.LVL110:
 729              	.L57:
 253:Modbus.c      ****  	}//...
 254:Modbus.c      **** else         //--------------- –æ—à–∏–±–∫–∞ –∞–¥—Ä–µ—Å–∞ –∏–ª–∏ –∫–æ–ª–∏—á–µ—Å—Ç–≤–∞ —Ä–µ–≥–∏—Å—Ç—Ä
 255:Modbus.c      **** 	{
 256:Modbus.c      **** 		response[1] = response[1] | 0x80;				// –ø—Ä–∏–∑–Ω–∞–∫ –æ—à–∏–±–∫–∏
 730              		.loc 1 256 0 is_stmt 1
 731 005a 0F4B     		ldr	r3, .L58+4
 732 005c 8022     		movs	r2, #128
 733 005e 5242     		rsbs	r2, r2, #0
 734 0060 1443     		orrs	r4, r2
 735 0062 5C70     		strb	r4, [r3, #1]
 257:Modbus.c      **** 		response[2] = ILLEGAL_DATA_ADDRESS; 			// –∫–æ–¥ –æ—à–∏–±–∫–∏
 736              		.loc 1 257 0
 737 0064 8232     		adds	r2, r2, #130
 738 0066 9A70     		strb	r2, [r3, #2]
 258:Modbus.c      **** 		j = 3;											// –∫–æ–ª–∏—á–µ—Å—Ç–≤–æ –±–∞–π—Ç –≤ –æ—Ç–≤–µ—Ç–µ –±–∫–µ–∑ CRC
 739              		.loc 1 258 0
 740 0068 0324     		movs	r4, #3
 741              	.LVL111:
ARM GAS  C:\Users\Ryan\AppData\Local\Temp\ccX7BrTn.s 			page 19


 742              	.L55:
 259:Modbus.c      **** 	}// –∫–æ–Ω–µ—Ü –æ–±—Ä–∞–±–æ—Ç–∫–∏ ------------------
 260:Modbus.c      **** 	
 261:Modbus.c      **** //  --------------  –†–∞—Å—á–µ—Ç  CRC  ------------ 
 262:Modbus.c      ****   crc = generateCRC(j+2);								// calculate CRC
 743              		.loc 1 262 0
 744 006a A61C     		adds	r6, r4, #2
 745 006c F6B2     		uxtb	r6, r6
 746 006e 3000     		movs	r0, r6
 747 0070 FFF7FEFF 		bl	generateCRC
 748              	.LVL112:
 263:Modbus.c      ****   response[j] = crc >> 8;  j++;							// CRC upper byte
 749              		.loc 1 263 0
 750 0074 030A     		lsrs	r3, r0, #8
 751 0076 084D     		ldr	r5, .L58+4
 752              	.LVL113:
 753 0078 2B55     		strb	r3, [r5, r4]
 754 007a 0134     		adds	r4, r4, #1
 755 007c E4B2     		uxtb	r4, r4
 756              	.LVL114:
 264:Modbus.c      ****   response[j] = crc;       j++;						    // CRC lower byte
 757              		.loc 1 264 0
 758 007e 2855     		strb	r0, [r5, r4]
 759              	.LVL115:
 265:Modbus.c      ****  
 266:Modbus.c      **** 
 267:Modbus.c      **** 
 268:Modbus.c      ****   response[j] = 0x00;      j+=1;//add null terminator
 760              		.loc 1 268 0
 761 0080 0023     		movs	r3, #0
 762 0082 AB55     		strb	r3, [r5, r6]
 763              	.LVL116:
 269:Modbus.c      **** 
 270:Modbus.c      **** TX_EN_Write(1); //Assert TX Enable - Speak to Bus
 764              		.loc 1 270 0
 765 0084 0120     		movs	r0, #1
 766              	.LVL117:
 767 0086 FFF7FEFF 		bl	TX_EN_Write
 768              	.LVL118:
 271:Modbus.c      ****     UART_UartPutString(response);
 769              		.loc 1 271 0
 770 008a 2800     		movs	r0, r5
 771 008c FFF7FEFF 		bl	UART_UartPutString
 772              	.LVL119:
 272:Modbus.c      **** // for(i=0;i<j;i++) {UART_UartPutChar(response[i]);}	// Send the packet
 273:Modbus.c      **** 
 274:Modbus.c      **** }//..........................
 773              		.loc 1 274 0
 774 0090 02B0     		add	sp, sp, #8
 775              		@ sp needed
 776 0092 70BD     		pop	{r4, r5, r6, pc}
 777              	.L59:
 778              		.align	2
 779              	.L58:
 780 0094 00000000 		.word	received
 781 0098 00000000 		.word	response
 782 009c 00000000 		.word	SlaveAddress
ARM GAS  C:\Users\Ryan\AppData\Local\Temp\ccX7BrTn.s 			page 20


 783 00a0 00000000 		.word	DataBuff
 784              		.cfi_endproc
 785              	.LFE38:
 786              		.size	getRegisters, .-getRegisters
 787              		.section	.text.writeReg,"ax",%progbits
 788              		.align	2
 789              		.global	writeReg
 790              		.code	16
 791              		.thumb_func
 792              		.type	writeReg, %function
 793              	writeReg:
 794              	.LFB39:
 275:Modbus.c      **** 
 276:Modbus.c      **** 
 277:Modbus.c      **** 
 278:Modbus.c      **** /****************************************************************************************
 279:Modbus.c      **** *  –ø–æ–¥–ø—Ä–æ–≥—Ä–∞–º–º–∞  –∑–∞–ø–∏—Å–∏ –∑–Ω–∞—á–µ–Ω–∏—è –≤–æ  –≤–Ω—É—Ç—Ä–µ–Ω–Ω–∏–π —Ä–µ–≥–∏—Å—Ç—
 280:Modbus.c      **** *****************************************************************************************/
 281:Modbus.c      ****  /*            
 282:Modbus.c      **** –ö–æ–¥ —Ñ—É–Ω–∫—Ü–∏–∏:  06 
 283:Modbus.c      **** received[2] -  –ê–¥—Ä–µ—Å –Ω–∞—á–∞–ª—å–Ω–æ–≥–æ —Ä–µ–≥–∏—Å—Ç—Ä–∞(Hi)    
 284:Modbus.c      **** received[3] -  –ê–¥—Ä–µ—Å –Ω–∞—á–∞–ª—å–Ω–æ–≥–æ —Ä–µ–≥–∏—Å—Ç—Ä–∞(Lo)
 285:Modbus.c      **** received[4] -  –î–∞–Ω–Ω—ã–µ –¥–ª—è –¥–∞–ø–∏—Å–∏ –≤ —Ä–µ–≥–∏—Å—Ç—Ä(Hi)        
 286:Modbus.c      **** received[5] -  –î–∞–Ω–Ω—ã–µ –¥–ª—è –¥–∞–ø–∏—Å–∏ –≤ —Ä–µ–≥–∏—Å—Ç—Ä(Lo)
 287:Modbus.c      **** ****************************************************************************************/
 288:Modbus.c      **** void writeReg(void)
 289:Modbus.c      **** {
 795              		.loc 1 289 0
 796              		.cfi_startproc
 797              		@ args = 0, pretend = 0, frame = 0
 798              		@ frame_needed = 0, uses_anonymous_args = 0
 799 0000 70B5     		push	{r4, r5, r6, lr}
 800              		.cfi_def_cfa_offset 16
 801              		.cfi_offset 4, -16
 802              		.cfi_offset 5, -12
 803              		.cfi_offset 6, -8
 804              		.cfi_offset 14, -4
 805              	.LVL120:
 290:Modbus.c      ****   unsigned int wr_Address = 0;
 291:Modbus.c      ****   unsigned int crc, i,j = 0;
 292:Modbus.c      ****   //unsigned int errW   = 0;
 293:Modbus.c      **** 	
 294:Modbus.c      ****  wr_Address = (received[2]<<8)|received[3]; 				// –ê–¥—Ä–µ—Å –∑–∞–ø–∏—Å—ã–≤–∞–µ–º–æ–≥–æ —Ä–µ–≥–∏—Å
 806              		.loc 1 294 0
 807 0002 1C4A     		ldr	r2, .L65
 808 0004 9078     		ldrb	r0, [r2, #2]
 809 0006 0302     		lsls	r3, r0, #8
 810 0008 D178     		ldrb	r1, [r2, #3]
 811 000a 0B43     		orrs	r3, r1
 812              	.LVL121:
 295:Modbus.c      ****  
 296:Modbus.c      ****   // –≥–æ—Ç–æ–≤–∏–º –æ—Ç–≤–µ—Ç
 297:Modbus.c      ****   response[0] = SlaveAddress;
 813              		.loc 1 297 0
 814 000c 1A4A     		ldr	r2, .L65+4
 815 000e 1B4C     		ldr	r4, .L65+8
 816 0010 2478     		ldrb	r4, [r4]
ARM GAS  C:\Users\Ryan\AppData\Local\Temp\ccX7BrTn.s 			page 21


 817 0012 1470     		strb	r4, [r2]
 298:Modbus.c      ****   response[1] = 0x06;
 818              		.loc 1 298 0
 819 0014 0624     		movs	r4, #6
 820 0016 5470     		strb	r4, [r2, #1]
 299:Modbus.c      ****   response[2] = received[2]; 								//useful to store  2 bytes per reg
 821              		.loc 1 299 0
 822 0018 9070     		strb	r0, [r2, #2]
 300:Modbus.c      ****   response[3] = received[3];
 823              		.loc 1 300 0
 824 001a D170     		strb	r1, [r2, #3]
 301:Modbus.c      **** 
 302:Modbus.c      **** //TO DO CHECK VALUE IS ACTUALLY WRITTEN//
 303:Modbus.c      **** if (wr_Address<127) 	//–µ—Å–ª–∏ –Ω–µ—Ç –æ—à–∏–±–æ–∫
 825              		.loc 1 303 0
 826 001c 7E2B     		cmp	r3, #126
 827 001e 0DD8     		bhi	.L61
 304:Modbus.c      **** 	{
 305:Modbus.c      **** 	 holdingReg[wr_Address] = (received[4]<<8)|received[5];	// –º–µ–Ω—è–µ–º –∑–Ω–∞—á–µ–Ω–∏–µ —Ä–µ–≥–∏—
 828              		.loc 1 305 0
 829 0020 1449     		ldr	r1, .L65
 830 0022 0A79     		ldrb	r2, [r1, #4]
 831 0024 1202     		lsls	r2, r2, #8
 832 0026 4979     		ldrb	r1, [r1, #5]
 833 0028 0A43     		orrs	r2, r1
 834 002a 9B00     		lsls	r3, r3, #2
 835              	.LVL122:
 836 002c 1449     		ldr	r1, .L65+12
 837 002e 5A50     		str	r2, [r3, r1]
 306:Modbus.c      **** 	 response[4] =  holdingReg[wr_Address]>>8;				// –ø–µ—Ä–µ–¥–∞–µ–º –µ–≥–æ 
 838              		.loc 1 306 0
 839 0030 110A     		lsrs	r1, r2, #8
 840 0032 114B     		ldr	r3, .L65+4
 841 0034 1971     		strb	r1, [r3, #4]
 307:Modbus.c      **** 	 response[5] =  holdingReg[wr_Address]&0xFF;			// –≤ –¥–∞–Ω–Ω—ã–µ –æ—Ç–≤–µ—Ç–∞ 
 842              		.loc 1 307 0
 843 0036 5A71     		strb	r2, [r3, #5]
 844              	.LVL123:
 308:Modbus.c      **** 	 j = 6;													// —á–∏—Å–ª–æ –±–∞–π—Ç –≤ –æ—Ç–≤–µ—Ç–µ (–±–µ–∑ CRC) 
 845              		.loc 1 308 0
 846 0038 0625     		movs	r5, #6
 847 003a 05E0     		b	.L62
 848              	.LVL124:
 849              	.L61:
 309:Modbus.c      ****  	}	
 310:Modbus.c      **** else 
 311:Modbus.c      **** 	{
 312:Modbus.c      **** 	 response[1] = 0x06|0x80;
 850              		.loc 1 312 0
 851 003c 0E4B     		ldr	r3, .L65+4
 852              	.LVL125:
 853 003e 8622     		movs	r2, #134
 854 0040 5A70     		strb	r2, [r3, #1]
 313:Modbus.c      **** 	 response[2] = ILLEGAL_DATA_ADDRESS; 
 855              		.loc 1 313 0
 856 0042 843A     		subs	r2, r2, #132
 857 0044 9A70     		strb	r2, [r3, #2]
ARM GAS  C:\Users\Ryan\AppData\Local\Temp\ccX7BrTn.s 			page 22


 858              	.LVL126:
 314:Modbus.c      **** 	 j =3; 													// —á–∏—Å–ª–æ –±–∞–π—Ç –≤ –æ—Ç–≤–µ—Ç–µ (–±–µ–∑ CRC) 
 859              		.loc 1 314 0
 860 0046 0325     		movs	r5, #3
 861              	.LVL127:
 862              	.L62:
 315:Modbus.c      ****  	}	
 316:Modbus.c      ****  //   ---------–≤–∞—ã—á–∏—Å–ª—è–µ–º CRC-------------------
 317:Modbus.c      ****   crc = generateCRC(j+2);								
 863              		.loc 1 317 0
 864 0048 A81C     		adds	r0, r5, #2
 865              	.LVL128:
 866 004a FFF7FEFF 		bl	generateCRC
 867              	.LVL129:
 318:Modbus.c      ****   response[j] = crc >> 8; j++;
 868              		.loc 1 318 0
 869 004e 020A     		lsrs	r2, r0, #8
 870 0050 094B     		ldr	r3, .L65+4
 871 0052 5A55     		strb	r2, [r3, r5]
 872 0054 6A1C     		adds	r2, r5, #1
 873              	.LVL130:
 319:Modbus.c      ****   response[j] = crc; j+=1;
 874              		.loc 1 319 0
 875 0056 9854     		strb	r0, [r3, r2]
 876 0058 0235     		adds	r5, r5, #2
 877              	.LVL131:
 320:Modbus.c      **** 
 321:Modbus.c      **** TX_EN_Write(1); //Assert TX Enable - Speak to Bus
 878              		.loc 1 321 0
 879 005a 0120     		movs	r0, #1
 880              	.LVL132:
 881 005c FFF7FEFF 		bl	TX_EN_Write
 882              	.LVL133:
 322:Modbus.c      ****   for(i=0;i<j;i++)  {UART_UartPutChar(response[i]); }// –æ—Ç–ø—Ä–∞–≤–ª—è–µ–º –æ—Ç–≤–µ—Ç
 883              		.loc 1 322 0
 884 0060 0024     		movs	r4, #0
 885 0062 04E0     		b	.L63
 886              	.LVL134:
 887              	.L64:
 888              		.loc 1 322 0 is_stmt 0 discriminator 3
 889 0064 044B     		ldr	r3, .L65+4
 890 0066 185D     		ldrb	r0, [r3, r4]
 891 0068 FFF7FEFF 		bl	UART_SpiUartWriteTxData
 892              	.LVL135:
 893 006c 0134     		adds	r4, r4, #1
 894              	.LVL136:
 895              	.L63:
 896              		.loc 1 322 0 discriminator 1
 897 006e AC42     		cmp	r4, r5
 898 0070 F8D3     		bcc	.L64
 323:Modbus.c      **** }//.............................
 899              		.loc 1 323 0 is_stmt 1
 900              		@ sp needed
 901              	.LVL137:
 902              	.LVL138:
 903 0072 70BD     		pop	{r4, r5, r6, pc}
 904              	.L66:
ARM GAS  C:\Users\Ryan\AppData\Local\Temp\ccX7BrTn.s 			page 23


 905              		.align	2
 906              	.L65:
 907 0074 00000000 		.word	received
 908 0078 00000000 		.word	response
 909 007c 00000000 		.word	SlaveAddress
 910 0080 00000000 		.word	holdingReg
 911              		.cfi_endproc
 912              	.LFE39:
 913              		.size	writeReg, .-writeReg
 914              		.section	.text.writeMultipleRegs,"ax",%progbits
 915              		.align	2
 916              		.global	writeMultipleRegs
 917              		.code	16
 918              		.thumb_func
 919              		.type	writeMultipleRegs, %function
 920              	writeMultipleRegs:
 921              	.LFB40:
 324:Modbus.c      **** 
 325:Modbus.c      **** 
 326:Modbus.c      **** 
 327:Modbus.c      **** /****************************************************************************************
 328:Modbus.c      **** *  –ø–æ–¥–ø—Ä–æ–≥—Ä–∞–º–º–∞  –∑–∞–ø–∏—Å–∏ –∑–Ω–∞—á–µ–Ω–∏—è –≤–æ  –≤–Ω—É—Ç—Ä–µ–Ω–Ω–∏e —Ä–µ–≥–∏—Å—Ç—Ä
 329:Modbus.c      **** *****************************************************************************************/
 330:Modbus.c      ****  /*            
 331:Modbus.c      **** received[1] -  –ö–æ–¥ —Ñ—É–Ω–∫—Ü–∏–∏:   0x10
 332:Modbus.c      **** received[2] -  –ê–¥—Ä–µ—Å –Ω–∞—á–∞–ª—å–Ω–æ–≥–æ —Ä–µ–≥–∏—Å—Ç—Ä–∞(Hi)    
 333:Modbus.c      **** received[3] -  –ê–¥—Ä–µ—Å –Ω–∞—á–∞–ª—å–Ω–æ–≥–æ —Ä–µ–≥–∏—Å—Ç—Ä–∞(Lo)
 334:Modbus.c      **** received[4] -  –∫–æ–ª–∏—á–µ—Å—Ç–≤–æ —Ä–µ–≥–∏—Å—Ç—Ä–æ–≤(Hi)        
 335:Modbus.c      **** received[5] -  –∫–æ–ª–∏—á–µ—Å—Ç–≤–æ —Ä–µ–≥–∏—Å—Ç—Ä–æ–≤(Lo)
 336:Modbus.c      **** received[6] -  –∫–æ–ª–∏—á–µ—Å—Ç–≤–æ –±–∞–π—Ç(Lo)
 337:Modbus.c      **** ****************************************************************************************/
 338:Modbus.c      **** void writeMultipleRegs(void)
 339:Modbus.c      **** {
 922              		.loc 1 339 0
 923              		.cfi_startproc
 924              		@ args = 0, pretend = 0, frame = 0
 925              		@ frame_needed = 0, uses_anonymous_args = 0
 926 0000 70B5     		push	{r4, r5, r6, lr}
 927              		.cfi_def_cfa_offset 16
 928              		.cfi_offset 4, -16
 929              		.cfi_offset 5, -12
 930              		.cfi_offset 6, -8
 931              		.cfi_offset 14, -4
 932              	.LVL139:
 340:Modbus.c      **** //–≤–æ–∑–≤—Ä–∞—â–∞–µ—Ç –∞–¥—Ä–µ—Å SL, —Ñ—É–Ω–∫—Ü–∏—é, –∞–¥—Ä–µ—Å –ø–µ—Ä–≤–æ–≥–æ —Ä–µ–≥–∏—Å—Ç—Ä–∞ –∏
 341:Modbus.c      ****   unsigned int wmr_Address  = 0;
 342:Modbus.c      ****   unsigned int wmr_numBytes = 0;
 343:Modbus.c      ****   unsigned int valToWrite   = 0;	// –Ω–æ–≤–æ–µ –∑–Ω–∞—á–µ–Ω–∏–µ —Ä–µ–≥–∏—Å—Ç—Ä–∞
 344:Modbus.c      ****   unsigned int crc,i = 0;
 345:Modbus.c      ****   unsigned char j = 0;
 346:Modbus.c      **** 
 347:Modbus.c      ****   wmr_Address = (received[2]<<8)|received[3]; // Combine address bytes	  –ê–¥—Ä–µ—Å –Ω–∞—á–∞–ª—å–Ω–
 933              		.loc 1 347 0
 934 0002 224A     		ldr	r2, .L76
 935 0004 9078     		ldrb	r0, [r2, #2]
 936 0006 0502     		lsls	r5, r0, #8
 937 0008 D178     		ldrb	r1, [r2, #3]
ARM GAS  C:\Users\Ryan\AppData\Local\Temp\ccX7BrTn.s 			page 24


 938 000a 0D43     		orrs	r5, r1
 939              	.LVL140:
 348:Modbus.c      **** 
 349:Modbus.c      ****   wmr_numBytes = received[6]/2;  				// —á–∏—Å–ª–æ –æ–±–Ω–æ–≤–ª—è–µ–º—ã—Ö —Ä–µ–≥–∏—Å—Ç—Ä–æ–≤ 
 940              		.loc 1 349 0
 941 000c 9679     		ldrb	r6, [r2, #6]
 942 000e 7608     		lsrs	r6, r6, #1
 943              	.LVL141:
 350:Modbus.c      **** 
 351:Modbus.c      ****   response[0] = SlaveAddress;
 944              		.loc 1 351 0
 945 0010 1F4B     		ldr	r3, .L76+4
 946 0012 204C     		ldr	r4, .L76+8
 947 0014 2478     		ldrb	r4, [r4]
 948 0016 1C70     		strb	r4, [r3]
 352:Modbus.c      ****   response[1] = 0x10;
 949              		.loc 1 352 0
 950 0018 1024     		movs	r4, #16
 951 001a 5C70     		strb	r4, [r3, #1]
 353:Modbus.c      ****   response[2] = received[2];   	// –∞–¥—Ä–µ—Å –ø–µ—Ä–≤–æ–≥–æ —Ä–µ–≥–∏—Å—Ç—Ä–∞ –±–∞–π—Ç (Hi)
 952              		.loc 1 353 0
 953 001c 9870     		strb	r0, [r3, #2]
 354:Modbus.c      ****   response[3] = received[3];   	// –∞–¥—Ä–µ—Å –ø–µ—Ä–≤–æ–≥–æ —Ä–µ–≥–∏—Å—Ç—Ä–∞  (Lo)
 954              		.loc 1 354 0
 955 001e D970     		strb	r1, [r3, #3]
 355:Modbus.c      ****   response[4] = received[4];	// —á–∏—Å–ª–æ —Ä–µ–≥–∏—Å—Ç—Ä–æ–≤ –±–∞–π—Ç(Hi)
 956              		.loc 1 355 0
 957 0020 1179     		ldrb	r1, [r2, #4]
 958 0022 1971     		strb	r1, [r3, #4]
 356:Modbus.c      ****   response[5] = received[5];	// —á–∏—Å–ª–æ —Ä–µ–≥–∏—Å—Ç—Ä–æ–≤ (Lo)
 959              		.loc 1 356 0
 960 0024 5279     		ldrb	r2, [r2, #5]
 961 0026 5A71     		strb	r2, [r3, #5]
 357:Modbus.c      **** 
 358:Modbus.c      **** //TO DO CHECK VALUE IS ACTUALLY WRITTEN//
 359:Modbus.c      **** if (wmr_Address<127) 	//–µ—Å–ª–∏ –Ω–µ—Ç –æ—à–∏–±–æ–∫
 962              		.loc 1 359 0
 963 0028 7E2D     		cmp	r5, #126
 964 002a 0DD9     		bls	.L74
 965 002c 11E0     		b	.L75
 966              	.LVL142:
 967              	.L70:
 360:Modbus.c      **** 	{
 361:Modbus.c      ****   	  for(i=0;i<wmr_numBytes;i++)  {			// –æ–±–Ω–æ–≤–ª—è–µ–º —Ä–µ–≥–∏—Å—Ç—Ä—ã
 362:Modbus.c      ****     	valToWrite = received[j]<<8; j++;
 968              		.loc 1 362 0 discriminator 3
 969 002e 1749     		ldr	r1, .L76
 970 0030 0B5D     		ldrb	r3, [r1, r4]
 971 0032 1B02     		lsls	r3, r3, #8
 972              	.LVL143:
 973 0034 0134     		adds	r4, r4, #1
 974              	.LVL144:
 363:Modbus.c      ****     	valToWrite |= received[j];	j++;
 975              		.loc 1 363 0 discriminator 3
 976 0036 095D     		ldrb	r1, [r1, r4]
 977 0038 0B43     		orrs	r3, r1
 978              	.LVL145:
ARM GAS  C:\Users\Ryan\AppData\Local\Temp\ccX7BrTn.s 			page 25


 364:Modbus.c      ****     	holdingReg[wmr_Address + i] = valToWrite; 
 979              		.loc 1 364 0 discriminator 3
 980 003a 5119     		adds	r1, r2, r5
 981 003c 8900     		lsls	r1, r1, #2
 982 003e 1648     		ldr	r0, .L76+12
 983 0040 0B50     		str	r3, [r1, r0]
 984              	.LVL146:
 361:Modbus.c      ****     	valToWrite = received[j]<<8; j++;
 985              		.loc 1 361 0 discriminator 3
 986 0042 0132     		adds	r2, r2, #1
 987              	.LVL147:
 365:Modbus.c      **** 		j = 6;}            // –∫–æ–ª–∏—á–µ—Å—Ç–≤–æ –±–∞–π—Ç –≤ –æ—Ç–≤–µ—Ç–µ –±–∫–µ–∑ CRC
 988              		.loc 1 365 0 discriminator 3
 989 0044 0624     		movs	r4, #6
 990 0046 01E0     		b	.L68
 991              	.LVL148:
 992              	.L74:
 993 0048 0024     		movs	r4, #0
 994 004a 0022     		movs	r2, #0
 995              	.LVL149:
 996              	.L68:
 361:Modbus.c      ****     	valToWrite = received[j]<<8; j++;
 997              		.loc 1 361 0 discriminator 1
 998 004c B242     		cmp	r2, r6
 999 004e EED3     		bcc	.L70
 1000 0050 05E0     		b	.L71
 1001              	.LVL150:
 1002              	.L75:
 366:Modbus.c      **** 	}
 367:Modbus.c      **** else 
 368:Modbus.c      **** 	{
 369:Modbus.c      **** 	  response[1] = 0x10|0x80;					// –ø—Ä–∏–∑–Ω–∞–∫ –æ—à–∏–±–∫–∏
 1003              		.loc 1 369 0
 1004 0052 0F4B     		ldr	r3, .L76+4
 1005 0054 9022     		movs	r2, #144
 1006 0056 5A70     		strb	r2, [r3, #1]
 370:Modbus.c      **** 	  response[2] = ILLEGAL_DATA_ADDRESS; 		// –∫–æ–¥ –æ—à–∏–±–∫–∏
 1007              		.loc 1 370 0
 1008 0058 8E3A     		subs	r2, r2, #142
 1009 005a 9A70     		strb	r2, [r3, #2]
 1010              	.LVL151:
 371:Modbus.c      **** 	  j =3; 	       // –∫–æ–ª–∏—á–µ—Å—Ç–≤–æ –±–∞–π—Ç –≤ –æ—Ç–≤–µ—Ç–µ –±–∫–µ–∑ CRC	
 1011              		.loc 1 371 0
 1012 005c 0324     		movs	r4, #3
 1013              	.LVL152:
 1014              	.L71:
 372:Modbus.c      ****  	}
 373:Modbus.c      **** 
 374:Modbus.c      ****  //   ---------–≤–∞—ã—á–∏—Å–ª—è–µ–º CRC-------------------
 375:Modbus.c      ****   crc = generateCRC(j+2);	 
 1015              		.loc 1 375 0
 1016 005e A51C     		adds	r5, r4, #2
 1017              	.LVL153:
 1018 0060 2800     		movs	r0, r5
 1019 0062 FFF7FEFF 		bl	generateCRC
 1020              	.LVL154:
 376:Modbus.c      ****   response[j] = crc >> 8;  j++;
ARM GAS  C:\Users\Ryan\AppData\Local\Temp\ccX7BrTn.s 			page 26


 1021              		.loc 1 376 0
 1022 0066 020A     		lsrs	r2, r0, #8
 1023 0068 094B     		ldr	r3, .L76+4
 1024 006a 1A55     		strb	r2, [r3, r4]
 1025 006c 0134     		adds	r4, r4, #1
 1026              	.LVL155:
 377:Modbus.c      ****   response[j] = crc;       j+=1;
 1027              		.loc 1 377 0
 1028 006e 1855     		strb	r0, [r3, r4]
 1029              	.LVL156:
 378:Modbus.c      **** 
 379:Modbus.c      **** TX_EN_Write(1); //Assert TX Enable - Speak to Bus
 1030              		.loc 1 379 0
 1031 0070 0120     		movs	r0, #1
 1032              	.LVL157:
 1033 0072 FFF7FEFF 		bl	TX_EN_Write
 1034              	.LVL158:
 380:Modbus.c      **** for(i=0;i<j;i++){ UART_UartPutChar(response[i]); }	// –æ—Ç–ø—Ä–∞–≤–∏–º —Å–æ–æ–±—â–µ–Ω–∏–µ
 1035              		.loc 1 380 0
 1036 0076 0024     		movs	r4, #0
 1037 0078 04E0     		b	.L72
 1038              	.LVL159:
 1039              	.L73:
 1040              		.loc 1 380 0 is_stmt 0 discriminator 3
 1041 007a 054B     		ldr	r3, .L76+4
 1042 007c 185D     		ldrb	r0, [r3, r4]
 1043 007e FFF7FEFF 		bl	UART_SpiUartWriteTxData
 1044              	.LVL160:
 1045 0082 0134     		adds	r4, r4, #1
 1046              	.LVL161:
 1047              	.L72:
 1048              		.loc 1 380 0 discriminator 1
 1049 0084 AC42     		cmp	r4, r5
 1050 0086 F8D3     		bcc	.L73
 381:Modbus.c      **** }//.....................
 1051              		.loc 1 381 0 is_stmt 1
 1052              		@ sp needed
 1053              	.LVL162:
 1054              	.LVL163:
 1055              	.LVL164:
 1056 0088 70BD     		pop	{r4, r5, r6, pc}
 1057              	.L77:
 1058 008a C046     		.align	2
 1059              	.L76:
 1060 008c 00000000 		.word	received
 1061 0090 00000000 		.word	response
 1062 0094 00000000 		.word	SlaveAddress
 1063 0098 00000000 		.word	holdingReg
 1064              		.cfi_endproc
 1065              	.LFE40:
 1066              		.size	writeMultipleRegs, .-writeMultipleRegs
 1067              		.section	.text.writeCoil,"ax",%progbits
 1068              		.align	2
 1069              		.global	writeCoil
 1070              		.code	16
 1071              		.thumb_func
 1072              		.type	writeCoil, %function
ARM GAS  C:\Users\Ryan\AppData\Local\Temp\ccX7BrTn.s 			page 27


 1073              	writeCoil:
 1074              	.LFB41:
 382:Modbus.c      **** 
 383:Modbus.c      **** 
 384:Modbus.c      **** 
 385:Modbus.c      **** /******************************************************************************/
 386:Modbus.c      **** /* Writes to a coil and then responds                                         */
 387:Modbus.c      **** /******************************************************************************/
 388:Modbus.c      **** void writeCoil(void)
 389:Modbus.c      **** {
 1075              		.loc 1 389 0
 1076              		.cfi_startproc
 1077              		@ args = 0, pretend = 0, frame = 0
 1078              		@ frame_needed = 0, uses_anonymous_args = 0
 1079 0000 70B5     		push	{r4, r5, r6, lr}
 1080              		.cfi_def_cfa_offset 16
 1081              		.cfi_offset 4, -16
 1082              		.cfi_offset 5, -12
 1083              		.cfi_offset 6, -8
 1084              		.cfi_offset 14, -4
 1085              	.LVL165:
 390:Modbus.c      ****   unsigned int wc_Address = 0;
 391:Modbus.c      ****   unsigned int wc_valToWrite = 0;
 392:Modbus.c      ****   unsigned int crc, i = 0;
 393:Modbus.c      **** 
 394:Modbus.c      ****   wc_Address =(received[2]<<8)| received[3]; 	// –ê–¥—Ä–µ—Å –Ω–∞—á–∞–ª—å–Ω–æ–≥–æ —Ä–µ–≥–∏—Å—Ç—Ä–∞(H
 1086              		.loc 1 394 0
 1087 0002 174A     		ldr	r2, .L83
 1088 0004 9378     		ldrb	r3, [r2, #2]
 1089 0006 1B02     		lsls	r3, r3, #8
 1090 0008 D678     		ldrb	r6, [r2, #3]
 1091 000a 3343     		orrs	r3, r6
 1092              	.LVL166:
 395:Modbus.c      ****   wc_valToWrite = (received[4]<<8)|received[5]; // –¥–∞–Ω–Ω—ã–µ –¥–ª—è –∑–∞–ø–∏—Å–∏
 1093              		.loc 1 395 0
 1094 000c 1179     		ldrb	r1, [r2, #4]
 1095 000e 0802     		lsls	r0, r1, #8
 1096 0010 5579     		ldrb	r5, [r2, #5]
 1097 0012 0200     		movs	r2, r0
 1098 0014 2A43     		orrs	r2, r5
 1099              	.LVL167:
 396:Modbus.c      **** 
 397:Modbus.c      ****   if(wc_valToWrite){coils[wc_Address] = 0xFF; }	// –Ω–æ–≤–æ–µ –∑–Ω–∞—á–µ–Ω–∏–µ —Ä–µ–≥–∏—Å—Ç—Ä–∞
 1100              		.loc 1 397 0
 1101 0016 03D0     		beq	.L79
 1102              		.loc 1 397 0 is_stmt 0 discriminator 1
 1103 0018 FF20     		movs	r0, #255
 1104 001a 124A     		ldr	r2, .L83+4
 1105              	.LVL168:
 1106 001c D054     		strb	r0, [r2, r3]
 1107 001e 02E0     		b	.L80
 1108              	.LVL169:
 1109              	.L79:
 398:Modbus.c      ****   else             {coils[wc_Address] = 0x00; }
 1110              		.loc 1 398 0 is_stmt 1
 1111 0020 0020     		movs	r0, #0
 1112 0022 104A     		ldr	r2, .L83+4
ARM GAS  C:\Users\Ryan\AppData\Local\Temp\ccX7BrTn.s 			page 28


 1113              	.LVL170:
 1114 0024 D054     		strb	r0, [r2, r3]
 1115              	.L80:
 399:Modbus.c      **** 
 400:Modbus.c      ****   response[0] = SlaveAddress;
 1116              		.loc 1 400 0
 1117 0026 104C     		ldr	r4, .L83+8
 1118 0028 104B     		ldr	r3, .L83+12
 1119              	.LVL171:
 1120 002a 1B78     		ldrb	r3, [r3]
 1121 002c 2370     		strb	r3, [r4]
 401:Modbus.c      ****   response[1] = 0x05;
 1122              		.loc 1 401 0
 1123 002e 0523     		movs	r3, #5
 1124 0030 6370     		strb	r3, [r4, #1]
 402:Modbus.c      ****   response[3] =  received[3]; //2 bytes per reg
 1125              		.loc 1 402 0
 1126 0032 E670     		strb	r6, [r4, #3]
 403:Modbus.c      ****   response[2] =  received[4];
 1127              		.loc 1 403 0
 1128 0034 A170     		strb	r1, [r4, #2]
 404:Modbus.c      **** 
 405:Modbus.c      **** //TO DO CHECK VALUE IS ACTUALLY WRITTEN//
 406:Modbus.c      ****   response[4] = received[4];
 1129              		.loc 1 406 0
 1130 0036 2171     		strb	r1, [r4, #4]
 407:Modbus.c      ****   response[5] = received[5];
 1131              		.loc 1 407 0
 1132 0038 6571     		strb	r5, [r4, #5]
 408:Modbus.c      **** 
 409:Modbus.c      ****   crc = generateCRC(8);
 1133              		.loc 1 409 0
 1134 003a 0820     		movs	r0, #8
 1135 003c FFF7FEFF 		bl	generateCRC
 1136              	.LVL172:
 410:Modbus.c      ****   response[6] = crc >> 8;
 1137              		.loc 1 410 0
 1138 0040 030A     		lsrs	r3, r0, #8
 1139 0042 A371     		strb	r3, [r4, #6]
 411:Modbus.c      ****   response[7] = crc;
 1140              		.loc 1 411 0
 1141 0044 E071     		strb	r0, [r4, #7]
 412:Modbus.c      **** 
 413:Modbus.c      **** TX_EN_Write(1); //Assert TX Enable - Speak to Bus
 1142              		.loc 1 413 0
 1143 0046 0120     		movs	r0, #1
 1144              	.LVL173:
 1145 0048 FFF7FEFF 		bl	TX_EN_Write
 1146              	.LVL174:
 414:Modbus.c      ****   for(i=0;i<8;i++){ UART_UartPutChar(response[i]); }
 1147              		.loc 1 414 0
 1148 004c 0024     		movs	r4, #0
 1149 004e 04E0     		b	.L81
 1150              	.LVL175:
 1151              	.L82:
 1152              		.loc 1 414 0 is_stmt 0 discriminator 3
 1153 0050 054B     		ldr	r3, .L83+8
ARM GAS  C:\Users\Ryan\AppData\Local\Temp\ccX7BrTn.s 			page 29


 1154 0052 185D     		ldrb	r0, [r3, r4]
 1155 0054 FFF7FEFF 		bl	UART_SpiUartWriteTxData
 1156              	.LVL176:
 1157 0058 0134     		adds	r4, r4, #1
 1158              	.LVL177:
 1159              	.L81:
 1160              		.loc 1 414 0 discriminator 1
 1161 005a 072C     		cmp	r4, #7
 1162 005c F8D9     		bls	.L82
 415:Modbus.c      **** }
 1163              		.loc 1 415 0 is_stmt 1
 1164              		@ sp needed
 1165              	.LVL178:
 1166 005e 70BD     		pop	{r4, r5, r6, pc}
 1167              	.L84:
 1168              		.align	2
 1169              	.L83:
 1170 0060 00000000 		.word	received
 1171 0064 00000000 		.word	coils
 1172 0068 00000000 		.word	response
 1173 006c 00000000 		.word	SlaveAddress
 1174              		.cfi_endproc
 1175              	.LFE41:
 1176              		.size	writeCoil, .-writeCoil
 1177              		.section	.text.writeMultipleCoils,"ax",%progbits
 1178              		.align	2
 1179              		.global	writeMultipleCoils
 1180              		.code	16
 1181              		.thumb_func
 1182              		.type	writeMultipleCoils, %function
 1183              	writeMultipleCoils:
 1184              	.LFB42:
 416:Modbus.c      **** 
 417:Modbus.c      **** 
 418:Modbus.c      **** /******************************************************************************/
 419:Modbus.c      **** /* Write a Multiple coils and then responds                                             */
 420:Modbus.c      **** /******************************************************************************/
 421:Modbus.c      **** void writeMultipleCoils(void)	 
 422:Modbus.c      **** {
 1185              		.loc 1 422 0
 1186              		.cfi_startproc
 1187              		@ args = 0, pretend = 0, frame = 0
 1188              		@ frame_needed = 0, uses_anonymous_args = 0
 1189 0000 F8B5     		push	{r3, r4, r5, r6, r7, lr}
 1190              		.cfi_def_cfa_offset 24
 1191              		.cfi_offset 3, -24
 1192              		.cfi_offset 4, -20
 1193              		.cfi_offset 5, -16
 1194              		.cfi_offset 6, -12
 1195              		.cfi_offset 7, -8
 1196              		.cfi_offset 14, -4
 1197              	.LVL179:
 423:Modbus.c      ****   unsigned int  wmc_Address = 0;
 424:Modbus.c      ****   unsigned int  wmc_numCoils = 0;
 425:Modbus.c      ****   unsigned char valToWrite;
 426:Modbus.c      ****   unsigned char q = 7; 				//count through vals to write	  –∞–¥—Ä–µ—Å –ø–µ—Ä–≤–æ–≥–æ –∑–Ω–∞—á–µ–Ω–∏
 427:Modbus.c      **** 	
ARM GAS  C:\Users\Ryan\AppData\Local\Temp\ccX7BrTn.s 			page 30


 428:Modbus.c      ****   unsigned int  crc = 0;
 429:Modbus.c      ****   unsigned char howManyBytes = 0;	// —Ü–µ–ª–æ–µ —á–∏—Å–ª–æ –±–∞–π—Ç
 430:Modbus.c      ****   unsigned char remainder = 0;		// –æ—Å—Ç–∞—Ç–æ–∫ 
 431:Modbus.c      ****   unsigned char i,j,l = 0;
 432:Modbus.c      **** 
 433:Modbus.c      ****   wmc_Address  = (received[2]<<8)|received[3]; 	// –ê–¥—Ä–µ—Å –Ω–∞—á–∞–ª—å–Ω–æ–≥–æ —Ä–µ–≥–∏—Å—Ç—Ä–∞
 1198              		.loc 1 433 0
 1199 0002 314B     		ldr	r3, .L101
 1200 0004 9E78     		ldrb	r6, [r3, #2]
 1201 0006 3202     		lsls	r2, r6, #8
 1202 0008 DD78     		ldrb	r5, [r3, #3]
 1203 000a 2A43     		orrs	r2, r5
 1204              	.LVL180:
 434:Modbus.c      ****   wmc_numCoils = (received[4]<<8)|received[5]; 	// –∫–æ–ª–∏—á–µ—Å—Ç–≤–æ j–¥–∞–Ω–Ω—ã—Ö –¥–ª—è –∑–∞–ø
 1205              		.loc 1 434 0
 1206 000c 1879     		ldrb	r0, [r3, #4]
 1207 000e 0702     		lsls	r7, r0, #8
 1208 0010 5979     		ldrb	r1, [r3, #5]
 1209 0012 0F43     		orrs	r7, r1
 1210              	.LVL181:
 435:Modbus.c      **** 
 436:Modbus.c      ****   response[0] = SlaveAddress;
 1211              		.loc 1 436 0
 1212 0014 2D4B     		ldr	r3, .L101+4
 1213 0016 2E4C     		ldr	r4, .L101+8
 1214 0018 2478     		ldrb	r4, [r4]
 1215 001a 1C70     		strb	r4, [r3]
 437:Modbus.c      ****   response[1] = 0x0F;							// The Function Code 
 1216              		.loc 1 437 0
 1217 001c 0F24     		movs	r4, #15
 1218 001e 5C70     		strb	r4, [r3, #1]
 438:Modbus.c      **** 
 439:Modbus.c      ****   howManyBytes = wmc_numCoils/8;
 1219              		.loc 1 439 0
 1220 0020 FC08     		lsrs	r4, r7, #3
 1221 0022 E4B2     		uxtb	r4, r4
 1222              	.LVL182:
 440:Modbus.c      ****   remainder = wmc_numCoils % 8;
 1223              		.loc 1 440 0
 1224 0024 0723     		movs	r3, #7
 1225 0026 1F40     		ands	r7, r3
 1226              	.LVL183:
 441:Modbus.c      **** 
 442:Modbus.c      ****   if(remainder){    howManyBytes += 1;  }		// –¥–æ–±–∞–≤–∏–º –±–∞–π—Ç –¥–ª—è –æ—Å—Ç–∞–≤—à–∏—Ö—Å—è –
 1227              		.loc 1 442 0
 1228 0028 01D0     		beq	.L86
 1229              		.loc 1 442 0 is_stmt 0 discriminator 1
 1230 002a 0134     		adds	r4, r4, #1
 1231              	.LVL184:
 1232 002c E4B2     		uxtb	r4, r4
 1233              	.LVL185:
 1234              	.L86:
 443:Modbus.c      ****   response[2] = received[2];					// Data Address of the first coil
 1235              		.loc 1 443 0 is_stmt 1
 1236 002e 274B     		ldr	r3, .L101+4
 1237 0030 9E70     		strb	r6, [r3, #2]
 444:Modbus.c      ****   response[3] = received[3];
ARM GAS  C:\Users\Ryan\AppData\Local\Temp\ccX7BrTn.s 			page 31


 1238              		.loc 1 444 0
 1239 0032 DD70     		strb	r5, [r3, #3]
 445:Modbus.c      ****   response[4] = received[4];					// The number of coils to written
 1240              		.loc 1 445 0
 1241 0034 1871     		strb	r0, [r3, #4]
 446:Modbus.c      ****   response[5] = received[5];
 1242              		.loc 1 446 0
 1243 0036 5971     		strb	r1, [r3, #5]
 447:Modbus.c      ****   l = wmc_Address;								// –Ω–∞—á–Ω–µ–º —Å —É–∫–∞–∑–∞–Ω–Ω–æ–≥–æ coil 
 1244              		.loc 1 447 0
 1245 0038 D2B2     		uxtb	r2, r2
 1246              	.LVL186:
 426:Modbus.c      **** 	
 1247              		.loc 1 426 0
 1248 003a 0726     		movs	r6, #7
 1249              	.LVL187:
 448:Modbus.c      **** 
 449:Modbus.c      ****   for(i=howManyBytes; i!=0; i--){
 1250              		.loc 1 449 0
 1251 003c 2EE0     		b	.L87
 1252              	.LVL188:
 1253              	.L97:
 450:Modbus.c      ****     valToWrite = received[q];	// q = 7 –Ω–∞—á–∞–ª–æ –¥–∞–Ω–Ω—ã—Ö
 1254              		.loc 1 450 0
 1255 003e 224B     		ldr	r3, .L101
 1256              	.LVL189:
 1257 0040 985D     		ldrb	r0, [r3, r6]
 1258              	.LVL190:
 451:Modbus.c      ****     q++;
 1259              		.loc 1 451 0
 1260 0042 0136     		adds	r6, r6, #1
 1261              	.LVL191:
 1262 0044 F6B2     		uxtb	r6, r6
 1263              	.LVL192:
 452:Modbus.c      ****     if(i>0){	// –¥–ª—è —Ü–µ–ª–æ–≥–æ –±–∞–π—Ç–∞ –ø–∏—à–µ–º –≤—Å–µ –±–∏—Ç—ã
 1264              		.loc 1 452 0
 1265 0046 002C     		cmp	r4, #0
 1266 0048 11D1     		bne	.L100
 1267 004a 0023     		movs	r3, #0
 1268              	.LVL193:
 1269 004c 22E0     		b	.L89
 1270              	.LVL194:
 1271              	.L92:
 453:Modbus.c      ****       		for(j=0;j!=8;j++){
 454:Modbus.c      **** 				if(CHECK_BIT(valToWrite, j)) { coils[l] = 0x01; }
 1272              		.loc 1 454 0
 1273 004e 0100     		movs	r1, r0
 1274 0050 1941     		asrs	r1, r1, r3
 1275 0052 C907     		lsls	r1, r1, #31
 1276 0054 03D5     		bpl	.L90
 1277              		.loc 1 454 0 is_stmt 0 discriminator 1
 1278 0056 0125     		movs	r5, #1
 1279 0058 1E49     		ldr	r1, .L101+12
 1280 005a 8D54     		strb	r5, [r1, r2]
 1281 005c 02E0     		b	.L91
 1282              	.L90:
 455:Modbus.c      **** 				else						 { coils[l] = 0x00; }//need to sort out remainder stuff
ARM GAS  C:\Users\Ryan\AppData\Local\Temp\ccX7BrTn.s 			page 32


 1283              		.loc 1 455 0 is_stmt 1
 1284 005e 0025     		movs	r5, #0
 1285 0060 1C49     		ldr	r1, .L101+12
 1286 0062 8D54     		strb	r5, [r1, r2]
 1287              	.L91:
 456:Modbus.c      **** 			      l++;}
 1288              		.loc 1 456 0 discriminator 2
 1289 0064 0132     		adds	r2, r2, #1
 1290              	.LVL195:
 1291 0066 D2B2     		uxtb	r2, r2
 1292              	.LVL196:
 453:Modbus.c      ****       		for(j=0;j!=8;j++){
 1293              		.loc 1 453 0 discriminator 2
 1294 0068 0133     		adds	r3, r3, #1
 1295              	.LVL197:
 1296 006a DBB2     		uxtb	r3, r3
 1297              	.LVL198:
 1298 006c 00E0     		b	.L88
 1299              	.LVL199:
 1300              	.L100:
 1301 006e 0023     		movs	r3, #0
 1302              	.LVL200:
 1303              	.L88:
 453:Modbus.c      ****       		for(j=0;j!=8;j++){
 1304              		.loc 1 453 0 is_stmt 0 discriminator 1
 1305 0070 082B     		cmp	r3, #8
 1306 0072 ECD1     		bne	.L92
 1307 0074 10E0     		b	.L93
 1308              	.L96:
 457:Modbus.c      ****     }
 458:Modbus.c      ****     else{	// –¥–ª—è –¥—Ä–æ–±–Ω–æ–π —á–∞—Å—Ç–∏ –∑–∞–ø–∏—à–µ–º —Ç–æ–ª—å–∫–æ —É–∫–∫–∞–∑–∞–Ω—ã–µ –≤ rem
 459:Modbus.c      ****       	for(j=0;j!=remainder;j++){
 460:Modbus.c      ****       		if(CHECK_BIT(valToWrite, j)){  coils[l] = 0x01; }
 1309              		.loc 1 460 0 is_stmt 1
 1310 0076 0100     		movs	r1, r0
 1311 0078 1941     		asrs	r1, r1, r3
 1312 007a C907     		lsls	r1, r1, #31
 1313 007c 03D5     		bpl	.L94
 1314              		.loc 1 460 0 is_stmt 0 discriminator 1
 1315 007e 0125     		movs	r5, #1
 1316 0080 1449     		ldr	r1, .L101+12
 1317 0082 8D54     		strb	r5, [r1, r2]
 1318 0084 02E0     		b	.L95
 1319              	.L94:
 461:Modbus.c      ****       		else                        {  coils[l] = 0x00; }
 1320              		.loc 1 461 0 is_stmt 1
 1321 0086 0025     		movs	r5, #0
 1322 0088 1249     		ldr	r1, .L101+12
 1323 008a 8D54     		strb	r5, [r1, r2]
 1324              	.L95:
 462:Modbus.c      ****       		l++; }
 1325              		.loc 1 462 0 discriminator 2
 1326 008c 0132     		adds	r2, r2, #1
 1327              	.LVL201:
 1328 008e D2B2     		uxtb	r2, r2
 1329              	.LVL202:
 459:Modbus.c      ****       		if(CHECK_BIT(valToWrite, j)){  coils[l] = 0x01; }
ARM GAS  C:\Users\Ryan\AppData\Local\Temp\ccX7BrTn.s 			page 33


 1330              		.loc 1 459 0 discriminator 2
 1331 0090 0133     		adds	r3, r3, #1
 1332              	.LVL203:
 1333 0092 DBB2     		uxtb	r3, r3
 1334              	.LVL204:
 1335              	.L89:
 459:Modbus.c      ****       		if(CHECK_BIT(valToWrite, j)){  coils[l] = 0x01; }
 1336              		.loc 1 459 0 is_stmt 0 discriminator 1
 1337 0094 BB42     		cmp	r3, r7
 1338 0096 EED1     		bne	.L96
 1339              	.L93:
 449:Modbus.c      ****     valToWrite = received[q];	// q = 7 –Ω–∞—á–∞–ª–æ –¥–∞–Ω–Ω—ã—Ö
 1340              		.loc 1 449 0 is_stmt 1 discriminator 2
 1341 0098 013C     		subs	r4, r4, #1
 1342              	.LVL205:
 1343 009a E4B2     		uxtb	r4, r4
 1344              	.LVL206:
 1345              	.L87:
 449:Modbus.c      ****     valToWrite = received[q];	// q = 7 –Ω–∞—á–∞–ª–æ –¥–∞–Ω–Ω—ã—Ö
 1346              		.loc 1 449 0 is_stmt 0 discriminator 1
 1347 009c 002C     		cmp	r4, #0
 1348 009e CED1     		bne	.L97
 463:Modbus.c      ****     }
 464:Modbus.c      ****   }
 465:Modbus.c      ****   crc = generateCRC(8);
 1349              		.loc 1 465 0 is_stmt 1
 1350 00a0 0820     		movs	r0, #8
 1351 00a2 FFF7FEFF 		bl	generateCRC
 1352              	.LVL207:
 466:Modbus.c      ****   response[6] = crc >> 8;
 1353              		.loc 1 466 0
 1354 00a6 020A     		lsrs	r2, r0, #8
 1355 00a8 084B     		ldr	r3, .L101+4
 1356 00aa 9A71     		strb	r2, [r3, #6]
 467:Modbus.c      ****   response[7] = crc;
 1357              		.loc 1 467 0
 1358 00ac D871     		strb	r0, [r3, #7]
 468:Modbus.c      **** 
 469:Modbus.c      **** TX_EN_Write(1); //Assert TX Enable - Speak to Bus
 1359              		.loc 1 469 0
 1360 00ae 0120     		movs	r0, #1
 1361              	.LVL208:
 1362 00b0 FFF7FEFF 		bl	TX_EN_Write
 1363              	.LVL209:
 470:Modbus.c      ****   for(i=0;i<8;i++){ UART_UartPutChar(response[i]); } // Slave Address,  0F,  Data Address of the fi
 1364              		.loc 1 470 0
 1365 00b4 05E0     		b	.L98
 1366              	.LVL210:
 1367              	.L99:
 1368              		.loc 1 470 0 is_stmt 0 discriminator 3
 1369 00b6 054B     		ldr	r3, .L101+4
 1370 00b8 185D     		ldrb	r0, [r3, r4]
 1371 00ba FFF7FEFF 		bl	UART_SpiUartWriteTxData
 1372              	.LVL211:
 1373 00be 0134     		adds	r4, r4, #1
 1374              	.LVL212:
 1375 00c0 E4B2     		uxtb	r4, r4
ARM GAS  C:\Users\Ryan\AppData\Local\Temp\ccX7BrTn.s 			page 34


 1376              	.LVL213:
 1377              	.L98:
 1378              		.loc 1 470 0 discriminator 1
 1379 00c2 072C     		cmp	r4, #7
 1380 00c4 F7D9     		bls	.L99
 471:Modbus.c      **** }
 1381              		.loc 1 471 0 is_stmt 1
 1382              		@ sp needed
 1383              	.LVL214:
 1384              	.LVL215:
 1385              	.LVL216:
 1386 00c6 F8BD     		pop	{r3, r4, r5, r6, r7, pc}
 1387              	.L102:
 1388              		.align	2
 1389              	.L101:
 1390 00c8 00000000 		.word	received
 1391 00cc 00000000 		.word	response
 1392 00d0 00000000 		.word	SlaveAddress
 1393 00d4 00000000 		.word	coils
 1394              		.cfi_endproc
 1395              	.LFE42:
 1396              		.size	writeMultipleCoils, .-writeMultipleCoils
 1397              		.section	.text.processMessage,"ax",%progbits
 1398              		.align	2
 1399              		.global	processMessage
 1400              		.code	16
 1401              		.thumb_func
 1402              		.type	processMessage, %function
 1403              	processMessage:
 1404              	.LFB43:
 472:Modbus.c      **** 
 473:Modbus.c      **** 
 474:Modbus.c      **** 
 475:Modbus.c      **** /**************************************************************************************************
 476:Modbus.c      ****  										–æ–±—Ä–∞–±–æ—Ç—á–∏–∫ —Å–æ–æ–±—â–µ–Ω–∏–π
 477:Modbus.c      **** ***************************************************************************************************
 478:Modbus.c      **** void processMessage(void)	  
 479:Modbus.c      **** {  
 1405              		.loc 1 479 0
 1406              		.cfi_startproc
 1407              		@ args = 0, pretend = 0, frame = 0
 1408              		@ frame_needed = 0, uses_anonymous_args = 0
 1409 0000 10B5     		push	{r4, lr}
 1410              		.cfi_def_cfa_offset 8
 1411              		.cfi_offset 4, -8
 1412              		.cfi_offset 14, -4
 480:Modbus.c      **** 	//unsigned char ERR; 
 481:Modbus.c      ****   	unsigned int crc;  //
 482:Modbus.c      **** 	if(received[0] == SlaveAddress)
 1413              		.loc 1 482 0
 1414 0002 214B     		ldr	r3, .L117
 1415 0004 1A78     		ldrb	r2, [r3]
 1416 0006 214B     		ldr	r3, .L117+4
 1417 0008 1B78     		ldrb	r3, [r3]
 1418 000a 9A42     		cmp	r2, r3
 1419 000c 3BD1     		bne	.L103
 483:Modbus.c      ****   {   
ARM GAS  C:\Users\Ryan\AppData\Local\Temp\ccX7BrTn.s 			page 35


 484:Modbus.c      ****   // if(!checkCRC())  {return;}  //TODO: Fix and Enable!	//  –ø—Ä–æ–≤–µ—Ä–∫–∞ - CRC –ø—Ä–∏ –æ—à–∏–±
 485:Modbus.c      ****  
 486:Modbus.c      ****  	 switch (received[1])
 1420              		.loc 1 486 0
 1421 000e 1E4A     		ldr	r2, .L117
 1422 0010 5178     		ldrb	r1, [r2, #1]
 1423 0012 1029     		cmp	r1, #16
 1424 0014 1DD8     		bhi	.L105
 1425 0016 8A00     		lsls	r2, r1, #2
 1426 0018 1D48     		ldr	r0, .L117+8
 1427 001a 8258     		ldr	r2, [r0, r2]
 1428 001c 9746     		mov	pc, r2
 1429              		.section	.rodata
 1430              		.align	2
 1431              	.L107:
 1432 0000 52000000 		.word	.L105
 1433 0004 1E000000 		.word	.L106
 1434 0008 24000000 		.word	.L108
 1435 000c 2A000000 		.word	.L109
 1436 0010 32000000 		.word	.L110
 1437 0014 3A000000 		.word	.L111
 1438 0018 40000000 		.word	.L112
 1439 001c 52000000 		.word	.L105
 1440 0020 52000000 		.word	.L105
 1441 0024 52000000 		.word	.L105
 1442 0028 52000000 		.word	.L105
 1443 002c 52000000 		.word	.L105
 1444 0030 52000000 		.word	.L105
 1445 0034 52000000 		.word	.L105
 1446 0038 52000000 		.word	.L105
 1447 003c 46000000 		.word	.L113
 1448 0040 4C000000 		.word	.L114
 1449              		.section	.text.processMessage
 1450              	.L106:
 487:Modbus.c      ****   	 {
 488:Modbus.c      **** 	  case 0x01: { readCoil() 				;	break;};	// —á—Ç–µ–Ω–∏–µ —Å—Ç–∞—Ç—É—Å–∞ Coils (–¥–∏—Å–∫—Ä–µ—Ç–Ω—ã—
 1451              		.loc 1 488 0
 1452 001e FFF7FEFF 		bl	readCoil
 1453              	.LVL217:
 1454 0022 30E0     		b	.L103
 1455              	.L108:
 489:Modbus.c      **** 	  case 0x02: { readInputCoil()  		;	break;};	// —á—Ç–µ–Ω–∏–µ —Å—Ç–∞—Ç—É—Å–∞ –¥–∏—Å–∫—Ä–µ—Ç–Ω—ã—Ö –
 1456              		.loc 1 489 0
 1457 0024 FFF7FEFF 		bl	readInputCoil
 1458              	.LVL218:
 1459 0028 2DE0     		b	.L103
 1460              	.L109:
 490:Modbus.c      **** 	  case 0x03: { getRegisters( 0x03)     ;	break;};	// *—á—Ç–µ–Ω–∏–µ –∑–Ω–∞—á–µ–Ω–∏—è –≤—ã—Ö–æ–¥–Ω—ã
 1461              		.loc 1 490 0
 1462 002a 0320     		movs	r0, #3
 1463 002c FFF7FEFF 		bl	getRegisters
 1464              	.LVL219:
 1465 0030 29E0     		b	.L103
 1466              	.L110:
 491:Modbus.c      **** 	  case 0x04: { getRegisters( 0x04)  	;	break;};	// *—á—Ç–µ–Ω–∏–µ –∑–Ω–∞—á–µ–Ω–∏—è –≤—Ö–æ–¥–Ω—ã—Ö —
 1467              		.loc 1 491 0
 1468 0032 0420     		movs	r0, #4
ARM GAS  C:\Users\Ryan\AppData\Local\Temp\ccX7BrTn.s 			page 36


 1469 0034 FFF7FEFF 		bl	getRegisters
 1470              	.LVL220:
 1471 0038 25E0     		b	.L103
 1472              	.L111:
 492:Modbus.c      **** 	  case 0x05: { writeCoil() 				;	break;};	// –∑–∞–ø–∏—Å—å –≤—ã—Ö–æ–¥–Ω–æ–≥–æ/–≤–Ω—É—Ç—Ä–µ–Ω–Ω–µ–≥–
 1473              		.loc 1 492 0
 1474 003a FFF7FEFF 		bl	writeCoil
 1475              	.LVL221:
 1476 003e 22E0     		b	.L103
 1477              	.L112:
 493:Modbus.c      **** 	  case 0x06: { writeReg()       		;	break;};	// *–∑–∞–ø–∏—Å—å –≤–Ω—É—Ç—Ä–µ–Ω–Ω–µ–≥–æ —Ä–µ–≥–∏—Å—Ç—
 1478              		.loc 1 493 0
 1479 0040 FFF7FEFF 		bl	writeReg
 1480              	.LVL222:
 1481 0044 1FE0     		b	.L103
 1482              	.L113:
 494:Modbus.c      **** 	  case 0x0F: { writeMultipleCoils() 	;	break;};	// –∑–∞–ø–∏—Å—å –Ω–µ—Å–∫–æ–ª—å–∫–∏—Ö –≤—ã—Ö–æ–¥–Ω—
 1483              		.loc 1 494 0
 1484 0046 FFF7FEFF 		bl	writeMultipleCoils
 1485              	.LVL223:
 1486 004a 1CE0     		b	.L103
 1487              	.L114:
 495:Modbus.c      **** 	  case 0x10: { writeMultipleRegs()  	;	break;};	// –∑–∞–ø–∏—Å—å –Ω–µ—Å–∫–æ–ª—å–∫–∏—Ö –≤–Ω—É—Ç—Ä–µ–
 1488              		.loc 1 495 0
 1489 004c FFF7FEFF 		bl	writeMultipleRegs
 1490              	.LVL224:
 1491 0050 19E0     		b	.L103
 1492              	.L105:
 496:Modbus.c      **** 
 497:Modbus.c      ****       default: {
 498:Modbus.c      **** 				response[0] = SlaveAddress;					// –∞–¥—Ä–µ—Å
 1493              		.loc 1 498 0
 1494 0052 104C     		ldr	r4, .L117+12
 1495 0054 2370     		strb	r3, [r4]
 499:Modbus.c      **** 		 		response[1] = received[1]| 0x80;			// –Ω–∞–∫–ª–∞–¥—ã–≤–∞–µ–º –º–∞—Å–∫—É –æ—à–∏–±–∫–∏
 1496              		.loc 1 499 0
 1497 0056 8023     		movs	r3, #128
 1498 0058 5B42     		rsbs	r3, r3, #0
 1499 005a 1943     		orrs	r1, r3
 1500 005c 6170     		strb	r1, [r4, #1]
 500:Modbus.c      **** 				response[2] = ILLEGAL_FUNCTION ;  			// ILLEGAL_FUNCTION –ü—Ä–∏–Ω—è—Ç—ã–π –∫–æ–¥ —Ñ—É–Ω–∫—Ü–∏–∏
 1501              		.loc 1 500 0
 1502 005e 8133     		adds	r3, r3, #129
 1503 0060 A370     		strb	r3, [r4, #2]
 501:Modbus.c      **** 				crc = generateCRC(5);						
 1504              		.loc 1 501 0
 1505 0062 0520     		movs	r0, #5
 1506 0064 FFF7FEFF 		bl	generateCRC
 1507              	.LVL225:
 502:Modbus.c      **** 				response[3] = crc >> 8;
 1508              		.loc 1 502 0
 1509 0068 030A     		lsrs	r3, r0, #8
 1510 006a E370     		strb	r3, [r4, #3]
 503:Modbus.c      ****   				response[4] = crc;
 1511              		.loc 1 503 0
 1512 006c 2071     		strb	r0, [r4, #4]
 504:Modbus.c      ****                 
ARM GAS  C:\Users\Ryan\AppData\Local\Temp\ccX7BrTn.s 			page 37


 505:Modbus.c      ****                 TX_EN_Write(1); //Assert TX Enable - Speak to Bus
 1513              		.loc 1 505 0
 1514 006e 0120     		movs	r0, #1
 1515              	.LVL226:
 1516 0070 FFF7FEFF 		bl	TX_EN_Write
 1517              	.LVL227:
 1518              	.LBB2:
 506:Modbus.c      ****                 for(int i=0;i<5;i++){ UART_UartPutChar(response[i]); } // —Å–æ–æ–±—â–∞–µ–º –æ –Ω–µ 
 1519              		.loc 1 506 0
 1520 0074 0024     		movs	r4, #0
 1521 0076 04E0     		b	.L115
 1522              	.LVL228:
 1523              	.L116:
 1524              		.loc 1 506 0 is_stmt 0 discriminator 3
 1525 0078 064B     		ldr	r3, .L117+12
 1526 007a 185D     		ldrb	r0, [r3, r4]
 1527 007c FFF7FEFF 		bl	UART_SpiUartWriteTxData
 1528              	.LVL229:
 1529 0080 0134     		adds	r4, r4, #1
 1530              	.LVL230:
 1531              	.L115:
 1532              		.loc 1 506 0 discriminator 1
 1533 0082 042C     		cmp	r4, #4
 1534 0084 F8DD     		ble	.L116
 1535              	.LVL231:
 1536              	.L103:
 1537              	.LBE2:
 507:Modbus.c      **** 	           };
 508:Modbus.c      **** 	
 509:Modbus.c      ****      };	
 510:Modbus.c      **** 
 511:Modbus.c      ****   }
 512:Modbus.c      **** 
 513:Modbus.c      ****  if(received[0] == 0)   { /*   –≤—Å—Ç–∞–≤–∏—Ç—å –æ–±—Ä–∞–±–æ—Ç—á–∏–∫ —à–∏—Ä–æ–∫–æ–≤–µ—â–∞—Ç–µ–ª—å–Ω
 514:Modbus.c      **** 
 515:Modbus.c      **** //modbusMessage = 0;
 516:Modbus.c      **** }//...................................
 1538              		.loc 1 516 0 is_stmt 1
 1539              		@ sp needed
 1540 0086 10BD     		pop	{r4, pc}
 1541              	.L118:
 1542              		.align	2
 1543              	.L117:
 1544 0088 00000000 		.word	received
 1545 008c 00000000 		.word	SlaveAddress
 1546 0090 00000000 		.word	.L107
 1547 0094 00000000 		.word	response
 1548              		.cfi_endproc
 1549              	.LFE43:
 1550              		.size	processMessage, .-processMessage
 1551              		.comm	DataBuff,512,4
 1552              		.text
 1553              	.Letext0:
 1554              		.file 2 "Generated_Source\\PSoC4/cytypes.h"
 1555              		.file 3 "./ModbusData.h"
 1556              		.file 4 "Generated_Source\\PSoC4/TX_EN.h"
 1557              		.file 5 "Generated_Source\\PSoC4/UART_SPI_UART.h"
ARM GAS  C:\Users\Ryan\AppData\Local\Temp\ccX7BrTn.s 			page 38

