ARM GAS  C:\Users\Ryan\AppData\Local\Temp\ccNll8MM.s 			page 1


   1              		.syntax unified
   2              		.cpu cortex-m0plus
   3              		.fpu softvfp
   4              		.eabi_attribute 20, 1
   5              		.eabi_attribute 21, 1
   6              		.eabi_attribute 23, 3
   7              		.eabi_attribute 24, 1
   8              		.eabi_attribute 25, 1
   9              		.eabi_attribute 26, 1
  10              		.eabi_attribute 30, 1
  11              		.eabi_attribute 34, 0
  12              		.eabi_attribute 18, 4
  13              		.thumb
  14              		.syntax unified
  15              		.file	"EEmotor.c"
  16              		.text
  17              	.Ltext0:
  18              		.cfi_sections	.debug_frame
  19              		.section	.text.EEmotor__init,"ax",%progbits
  20              		.align	2
  21              		.global	EEmotor__init
  22              		.code	16
  23              		.thumb_func
  24              		.type	EEmotor__init, %function
  25              	EEmotor__init:
  26              	.LFB34:
  27              		.file 1 "EEmotor.c"
   1:EEmotor.c     **** /* ========================================
   2:EEmotor.c     ****  *
   3:EEmotor.c     ****  * Copyright YOUR COMPANY, THE YEAR
   4:EEmotor.c     ****  * All Rights Reserved
   5:EEmotor.c     ****  * UNPUBLISHED, LICENSED SOFTWARE.
   6:EEmotor.c     ****  *
   7:EEmotor.c     ****  * CONFIDENTIAL AND PROPRIETARY INFORMATION
   8:EEmotor.c     ****  * WHICH IS THE PROPERTY OF your company.
   9:EEmotor.c     ****  *
  10:EEmotor.c     ****  * ========================================
  11:EEmotor.c     **** */
  12:EEmotor.c     **** 
  13:EEmotor.c     **** #include "EEmotor.h"
  14:EEmotor.c     **** 
  15:EEmotor.c     **** /**************STRUCT DEFINITION*************************/
  16:EEmotor.c     **** 
  17:EEmotor.c     **** struct EEmotor_PIreg{
  18:EEmotor.c     ****     float K_P;
  19:EEmotor.c     ****     float K_I;
  20:EEmotor.c     ****     float last_error;
  21:EEmotor.c     ****     float last_Iterm;
  22:EEmotor.c     ****     float last_control; 
  23:EEmotor.c     ****     float INPUT_SCALAR;
  24:EEmotor.c     ****     float OUTPUT_SCALAR;
  25:EEmotor.c     **** };
  26:EEmotor.c     **** 
  27:EEmotor.c     **** 
  28:EEmotor.c     **** #define SHAPER_OFF 0 //pass through values directly
  29:EEmotor.c     **** struct EEmotor_Shaper{
  30:EEmotor.c     ****     uint8_t mode;
ARM GAS  C:\Users\Ryan\AppData\Local\Temp\ccNll8MM.s 			page 2


  31:EEmotor.c     **** };
  32:EEmotor.c     **** 
  33:EEmotor.c     **** struct EEmotor{
  34:EEmotor.c     ****     
  35:EEmotor.c     ****     long set_position; //Stores requested position, relative to home
  36:EEmotor.c     ****     long shaper_out; //stores output of the shaper - used as input for position regulator
  37:EEmotor.c     ****     long home; //stores "home" offset
  38:EEmotor.c     ****     uint32_t encoder; //stores current encoder position, in pulses
  39:EEmotor.c     ****     uint32_t oldMillis;
  40:EEmotor.c     ****     float output; //stores current motor speed setpoint  //1000 = Full speed forward. -1000 = Full 
  41:EEmotor.c     ****     
  42:EEmotor.c     ****     float speed;
  43:EEmotor.c     ****     long position; //stores current position
  44:EEmotor.c     ****     
  45:EEmotor.c     ****     struct EEmotor_PIreg speedReg;
  46:EEmotor.c     ****     struct EEmotor_PIreg PosReg;
  47:EEmotor.c     ****     struct EEmotor_Shaper ShaperVars;
  48:EEmotor.c     ****   
  49:EEmotor.c     **** };
  50:EEmotor.c     **** 
  51:EEmotor.c     **** 
  52:EEmotor.c     **** 
  53:EEmotor.c     **** /**************CONSTRUCTORS AND DESTRUCTORS**************/
  54:EEmotor.c     **** struct EEmotor* EEmotor__create(uint32_t encoderVal){ //constructor
  55:EEmotor.c     ****     struct EEmotor* result = (struct EEmotor*) malloc(sizeof(struct EEmotor)); //alocate memory, ty
  56:EEmotor.c     ****     EEmotor__init(result, encoderVal); //initialize variables
  57:EEmotor.c     ****     return(result);
  58:EEmotor.c     **** }
  59:EEmotor.c     **** void EEmotor__init(struct EEmotor *self, uint32_t encoderVal){ //modifier (empty)
  28              		.loc 1 59 0
  29              		.cfi_startproc
  30              		@ args = 0, pretend = 0, frame = 0
  31              		@ frame_needed = 0, uses_anonymous_args = 0
  32              	.LVL0:
  33 0000 10B5     		push	{r4, lr}
  34              		.cfi_def_cfa_offset 8
  35              		.cfi_offset 4, -8
  36              		.cfi_offset 14, -4
  60:EEmotor.c     ****     self->encoder = encoderVal;
  37              		.loc 1 60 0
  38 0002 C160     		str	r1, [r0, #12]
  61:EEmotor.c     ****     self->shaper_out = encoderVal;
  39              		.loc 1 61 0
  40 0004 4160     		str	r1, [r0, #4]
  62:EEmotor.c     ****     self->home = encoderVal;
  41              		.loc 1 62 0
  42 0006 8160     		str	r1, [r0, #8]
  63:EEmotor.c     ****     self->set_position = encoderVal;
  43              		.loc 1 63 0
  44 0008 0160     		str	r1, [r0]
  64:EEmotor.c     ****     self->oldMillis = 0;
  45              		.loc 1 64 0
  46 000a 0021     		movs	r1, #0
  47              	.LVL1:
  48 000c 0161     		str	r1, [r0, #16]
  65:EEmotor.c     ****     self->output = 0;
  49              		.loc 1 65 0
ARM GAS  C:\Users\Ryan\AppData\Local\Temp\ccNll8MM.s 			page 3


  50 000e 0023     		movs	r3, #0
  51 0010 4361     		str	r3, [r0, #20]
  66:EEmotor.c     ****     self->speed = 0;
  52              		.loc 1 66 0
  53 0012 8361     		str	r3, [r0, #24]
  67:EEmotor.c     ****     self->position = 0;
  54              		.loc 1 67 0
  55 0014 C161     		str	r1, [r0, #28]
  68:EEmotor.c     ****     
  69:EEmotor.c     ****     self->speedReg.K_I = 0.0002;
  56              		.loc 1 69 0
  57 0016 0B4A     		ldr	r2, .L2
  58 0018 4262     		str	r2, [r0, #36]
  70:EEmotor.c     ****     self->speedReg.K_P = 1.0;
  59              		.loc 1 70 0
  60 001a FE22     		movs	r2, #254
  61 001c 9205     		lsls	r2, r2, #22
  62 001e 0262     		str	r2, [r0, #32]
  71:EEmotor.c     ****     self->speedReg.last_error = 0;
  63              		.loc 1 71 0
  64 0020 8362     		str	r3, [r0, #40]
  72:EEmotor.c     ****     self->speedReg.last_Iterm = 0;
  65              		.loc 1 72 0
  66 0022 C362     		str	r3, [r0, #44]
  73:EEmotor.c     ****     self->speedReg.last_control = 0;
  67              		.loc 1 73 0
  68 0024 0363     		str	r3, [r0, #48]
  74:EEmotor.c     ****     self->speedReg.INPUT_SCALAR = 1;
  69              		.loc 1 74 0
  70 0026 4263     		str	r2, [r0, #52]
  75:EEmotor.c     ****     self->speedReg.OUTPUT_SCALAR = 20000; // +/- 30000 for 1 rot/sec operation
  71              		.loc 1 75 0
  72 0028 074C     		ldr	r4, .L2+4
  73 002a 8463     		str	r4, [r0, #56]
  76:EEmotor.c     ****     
  77:EEmotor.c     ****     self->PosReg.K_I = 0.0001;
  74              		.loc 1 77 0
  75 002c 074C     		ldr	r4, .L2+8
  76 002e 0464     		str	r4, [r0, #64]
  78:EEmotor.c     ****     self->PosReg.K_P = 1.0;
  77              		.loc 1 78 0
  78 0030 C263     		str	r2, [r0, #60]
  79:EEmotor.c     ****     self->PosReg.last_error = 0;
  79              		.loc 1 79 0
  80 0032 4364     		str	r3, [r0, #68]
  80:EEmotor.c     ****     self->PosReg.last_Iterm = 0;
  81              		.loc 1 80 0
  82 0034 8364     		str	r3, [r0, #72]
  81:EEmotor.c     ****     self->PosReg.last_control = 0;
  83              		.loc 1 81 0
  84 0036 C364     		str	r3, [r0, #76]
  82:EEmotor.c     ****     self->PosReg.INPUT_SCALAR = 1.0/1080.0; //Scale 1:1  (For our motor)
  85              		.loc 1 82 0
  86 0038 054B     		ldr	r3, .L2+12
  87 003a 0365     		str	r3, [r0, #80]
  83:EEmotor.c     ****     self->PosReg.OUTPUT_SCALAR = 1; //Scale 1:1
  88              		.loc 1 83 0
ARM GAS  C:\Users\Ryan\AppData\Local\Temp\ccNll8MM.s 			page 4


  89 003c 4265     		str	r2, [r0, #84]
  84:EEmotor.c     ****     
  85:EEmotor.c     ****     self->ShaperVars.mode = SHAPER_OFF;
  90              		.loc 1 85 0
  91 003e 5823     		movs	r3, #88
  92 0040 C154     		strb	r1, [r0, r3]
  93              	.LVL2:
  86:EEmotor.c     ****     
  87:EEmotor.c     **** }
  94              		.loc 1 87 0
  95              		@ sp needed
  96 0042 10BD     		pop	{r4, pc}
  97              	.L3:
  98              		.align	2
  99              	.L2:
 100 0044 17B75139 		.word	961656599
 101 0048 00409C46 		.word	1184645120
 102 004c 17B7D138 		.word	953267991
 103 0050 D6B9723A 		.word	980597206
 104              		.cfi_endproc
 105              	.LFE34:
 106              		.size	EEmotor__init, .-EEmotor__init
 107              		.section	.text.EEmotor__create,"ax",%progbits
 108              		.align	2
 109              		.global	EEmotor__create
 110              		.code	16
 111              		.thumb_func
 112              		.type	EEmotor__create, %function
 113              	EEmotor__create:
 114              	.LFB33:
  54:EEmotor.c     ****     struct EEmotor* result = (struct EEmotor*) malloc(sizeof(struct EEmotor)); //alocate memory, ty
 115              		.loc 1 54 0
 116              		.cfi_startproc
 117              		@ args = 0, pretend = 0, frame = 0
 118              		@ frame_needed = 0, uses_anonymous_args = 0
 119              	.LVL3:
 120 0000 70B5     		push	{r4, r5, r6, lr}
 121              		.cfi_def_cfa_offset 16
 122              		.cfi_offset 4, -16
 123              		.cfi_offset 5, -12
 124              		.cfi_offset 6, -8
 125              		.cfi_offset 14, -4
 126 0002 0500     		movs	r5, r0
  55:EEmotor.c     ****     EEmotor__init(result, encoderVal); //initialize variables
 127              		.loc 1 55 0
 128 0004 5C20     		movs	r0, #92
 129              	.LVL4:
 130 0006 FFF7FEFF 		bl	malloc
 131              	.LVL5:
 132 000a 0400     		movs	r4, r0
 133              	.LVL6:
  56:EEmotor.c     ****     return(result);
 134              		.loc 1 56 0
 135 000c 2900     		movs	r1, r5
 136 000e FFF7FEFF 		bl	EEmotor__init
 137              	.LVL7:
  58:EEmotor.c     **** void EEmotor__init(struct EEmotor *self, uint32_t encoderVal){ //modifier (empty)
ARM GAS  C:\Users\Ryan\AppData\Local\Temp\ccNll8MM.s 			page 5


 138              		.loc 1 58 0
 139 0012 2000     		movs	r0, r4
 140              		@ sp needed
 141              	.LVL8:
 142              	.LVL9:
 143 0014 70BD     		pop	{r4, r5, r6, pc}
 144              		.cfi_endproc
 145              	.LFE33:
 146              		.size	EEmotor__create, .-EEmotor__create
 147 0016 C046     		.section	.text.EEmotor__destroy,"ax",%progbits
 148              		.align	2
 149              		.global	EEmotor__destroy
 150              		.code	16
 151              		.thumb_func
 152              		.type	EEmotor__destroy, %function
 153              	EEmotor__destroy:
 154              	.LFB35:
  88:EEmotor.c     **** 
  89:EEmotor.c     **** void EEmotor__destroy(struct EEmotor *self){ //destructor
 155              		.loc 1 89 0
 156              		.cfi_startproc
 157              		@ args = 0, pretend = 0, frame = 0
 158              		@ frame_needed = 0, uses_anonymous_args = 0
 159              	.LVL10:
 160 0000 10B5     		push	{r4, lr}
 161              		.cfi_def_cfa_offset 8
 162              		.cfi_offset 4, -8
 163              		.cfi_offset 14, -4
  90:EEmotor.c     ****     if(self){
 164              		.loc 1 90 0
 165 0002 0028     		cmp	r0, #0
 166 0004 01D0     		beq	.L5
  91:EEmotor.c     ****     free(self);
 167              		.loc 1 91 0
 168 0006 FFF7FEFF 		bl	free
 169              	.LVL11:
 170              	.L5:
  92:EEmotor.c     ****   }
  93:EEmotor.c     **** }
 171              		.loc 1 93 0
 172              		@ sp needed
 173 000a 10BD     		pop	{r4, pc}
 174              		.cfi_endproc
 175              	.LFE35:
 176              		.size	EEmotor__destroy, .-EEmotor__destroy
 177              		.global	__aeabi_f2iz
 178              		.section	.text.EEmotor__getSpeedOutput,"ax",%progbits
 179              		.align	2
 180              		.global	EEmotor__getSpeedOutput
 181              		.code	16
 182              		.thumb_func
 183              		.type	EEmotor__getSpeedOutput, %function
 184              	EEmotor__getSpeedOutput:
 185              	.LFB36:
  94:EEmotor.c     **** 
  95:EEmotor.c     **** 
  96:EEmotor.c     **** /********************** MEMBER FUNCTIONS *******************/
ARM GAS  C:\Users\Ryan\AppData\Local\Temp\ccNll8MM.s 			page 6


  97:EEmotor.c     **** long EEmotor__getSpeedOutput(struct EEmotor *self){
 186              		.loc 1 97 0
 187              		.cfi_startproc
 188              		@ args = 0, pretend = 0, frame = 0
 189              		@ frame_needed = 0, uses_anonymous_args = 0
 190              	.LVL12:
 191 0000 10B5     		push	{r4, lr}
 192              		.cfi_def_cfa_offset 8
 193              		.cfi_offset 4, -8
 194              		.cfi_offset 14, -4
  98:EEmotor.c     ****   return(self->output);   
 195              		.loc 1 98 0
 196 0002 4069     		ldr	r0, [r0, #20]
 197              	.LVL13:
 198 0004 FFF7FEFF 		bl	__aeabi_f2iz
 199              	.LVL14:
  99:EEmotor.c     **** }
 200              		.loc 1 99 0
 201              		@ sp needed
 202 0008 10BD     		pop	{r4, pc}
 203              		.cfi_endproc
 204              	.LFE36:
 205              		.size	EEmotor__getSpeedOutput, .-EEmotor__getSpeedOutput
 206 000a C046     		.section	.text.EEmotor__go,"ax",%progbits
 207              		.align	2
 208              		.global	EEmotor__go
 209              		.code	16
 210              		.thumb_func
 211              		.type	EEmotor__go, %function
 212              	EEmotor__go:
 213              	.LFB37:
 100:EEmotor.c     **** 
 101:EEmotor.c     **** void EEmotor__go(struct EEmotor *self, long NewPositionPulses){ //set the new position target
 214              		.loc 1 101 0
 215              		.cfi_startproc
 216              		@ args = 0, pretend = 0, frame = 0
 217              		@ frame_needed = 0, uses_anonymous_args = 0
 218              		@ link register save eliminated.
 219              	.LVL15:
 102:EEmotor.c     ****     self->set_position = NewPositionPulses + self->home; //include home offset
 220              		.loc 1 102 0
 221 0000 8368     		ldr	r3, [r0, #8]
 222 0002 9C46     		mov	ip, r3
 223 0004 6144     		add	r1, r1, ip
 224              	.LVL16:
 225 0006 0160     		str	r1, [r0]
 103:EEmotor.c     **** }
 226              		.loc 1 103 0
 227              		@ sp needed
 228 0008 7047     		bx	lr
 229              		.cfi_endproc
 230              	.LFE37:
 231              		.size	EEmotor__go, .-EEmotor__go
 232 000a C046     		.section	.text.EEmotor__nudge,"ax",%progbits
 233              		.align	2
 234              		.global	EEmotor__nudge
 235              		.code	16
ARM GAS  C:\Users\Ryan\AppData\Local\Temp\ccNll8MM.s 			page 7


 236              		.thumb_func
 237              		.type	EEmotor__nudge, %function
 238              	EEmotor__nudge:
 239              	.LFB38:
 104:EEmotor.c     **** 
 105:EEmotor.c     **** void EEmotor__nudge(struct EEmotor *self, long pulses_to_nudge){ //set the new position target
 240              		.loc 1 105 0
 241              		.cfi_startproc
 242              		@ args = 0, pretend = 0, frame = 0
 243              		@ frame_needed = 0, uses_anonymous_args = 0
 244              		@ link register save eliminated.
 245              	.LVL17:
 106:EEmotor.c     ****     self->set_position += pulses_to_nudge;
 246              		.loc 1 106 0
 247 0000 0368     		ldr	r3, [r0]
 248 0002 9C46     		mov	ip, r3
 249 0004 6144     		add	r1, r1, ip
 250              	.LVL18:
 251 0006 0160     		str	r1, [r0]
 107:EEmotor.c     **** }
 252              		.loc 1 107 0
 253              		@ sp needed
 254 0008 7047     		bx	lr
 255              		.cfi_endproc
 256              	.LFE38:
 257              		.size	EEmotor__nudge, .-EEmotor__nudge
 258 000a C046     		.section	.text.EEmotor__runShaper,"ax",%progbits
 259              		.align	2
 260              		.global	EEmotor__runShaper
 261              		.code	16
 262              		.thumb_func
 263              		.type	EEmotor__runShaper, %function
 264              	EEmotor__runShaper:
 265              	.LFB40:
 108:EEmotor.c     **** 
 109:EEmotor.c     **** int EEmotor__run(struct EEmotor *self, uint32_t newmillis, uint32_t newencoder){
 110:EEmotor.c     ****     if(self->oldMillis > newmillis){ //millisecond rollover event occured!
 111:EEmotor.c     ****         self->oldMillis = newmillis;
 112:EEmotor.c     ****         return(-1); //error
 113:EEmotor.c     ****     }
 114:EEmotor.c     ****     
 115:EEmotor.c     ****     uint32_t elapsedMs = newmillis - self->oldMillis;
 116:EEmotor.c     ****     float elapsedSec = (float)elapsedMs/1000.0;
 117:EEmotor.c     ****     
 118:EEmotor.c     ****     if( (newencoder > self->encoder) && ((newencoder - self->encoder) > EEMOTOR__ENCODER_ERR_THRESH
 119:EEmotor.c     ****         self->encoder = newencoder;
 120:EEmotor.c     ****         self->set_position = newencoder; // TODO: Fix Rollover Handling - This is a hack!!!
 121:EEmotor.c     ****         return(-2); //error  
 122:EEmotor.c     ****     }else if( (newencoder < self->encoder) && ((self->encoder - newencoder) > EEMOTOR__ENCODER_ERR_
 123:EEmotor.c     ****         self->encoder = newencoder;
 124:EEmotor.c     ****         self->set_position = newencoder; // TODO: Fix Rollover Handling - This is a hack!!!
 125:EEmotor.c     ****         return(-2); //error
 126:EEmotor.c     ****         
 127:EEmotor.c     ****     }else{
 128:EEmotor.c     ****         /*long deltaPosition = (newencoder - self->encoder);
 129:EEmotor.c     ****         self->speed = (float)deltaPosition/elapsedSec;
 130:EEmotor.c     ****         self->position += deltaPosition; //stores current position*/
ARM GAS  C:\Users\Ryan\AppData\Local\Temp\ccNll8MM.s 			page 8


 131:EEmotor.c     ****         
 132:EEmotor.c     ****         EEmotor__runShaper(self, elapsedSec);
 133:EEmotor.c     ****     
 134:EEmotor.c     ****         long positionError = self->shaper_out - (long)newencoder; //Don't handle rollover or anythi
 135:EEmotor.c     ****         self->output = EEmotor__runPI(&self->speedReg,elapsedSec,EEmotor__runPI(&self->PosReg, elap
 136:EEmotor.c     ****         //self->output = EEmotor__runPI(&self->PosReg, elapsedSec, ((float)positionError*self->PosR
 137:EEmotor.c     ****         
 138:EEmotor.c     ****     }
 139:EEmotor.c     ****     
 140:EEmotor.c     **** 
 141:EEmotor.c     ****     return(1);
 142:EEmotor.c     **** }
 143:EEmotor.c     **** 
 144:EEmotor.c     **** 
 145:EEmotor.c     **** int EEmotor__runShaper(struct EEmotor *self, float timestepSeconds){
 266              		.loc 1 145 0
 267              		.cfi_startproc
 268              		@ args = 0, pretend = 0, frame = 0
 269              		@ frame_needed = 0, uses_anonymous_args = 0
 270              		@ link register save eliminated.
 271              	.LVL19:
 146:EEmotor.c     ****     switch(self->ShaperVars.mode){
 272              		.loc 1 146 0
 273 0000 5823     		movs	r3, #88
 274 0002 C35C     		ldrb	r3, [r0, r3]
 275 0004 002B     		cmp	r3, #0
 276 0006 03D1     		bne	.L14
 147:EEmotor.c     ****         case SHAPER_OFF:
 148:EEmotor.c     ****             self->shaper_out = self->set_position; //Passthrough set position without shaping
 277              		.loc 1 148 0
 278 0008 0368     		ldr	r3, [r0]
 279 000a 4360     		str	r3, [r0, #4]
 149:EEmotor.c     ****             break;
 150:EEmotor.c     ****         default:
 151:EEmotor.c     ****             return(-1);
 152:EEmotor.c     ****             break;
 153:EEmotor.c     ****     }
 154:EEmotor.c     ****     
 155:EEmotor.c     ****     return(1); //success!
 280              		.loc 1 155 0
 281 000c 0120     		movs	r0, #1
 282              	.LVL20:
 283 000e 01E0     		b	.L11
 284              	.LVL21:
 285              	.L14:
 151:EEmotor.c     ****             break;
 286              		.loc 1 151 0
 287 0010 0120     		movs	r0, #1
 288              	.LVL22:
 289 0012 4042     		rsbs	r0, r0, #0
 290              	.L11:
 156:EEmotor.c     **** }
 291              		.loc 1 156 0
 292              		@ sp needed
 293 0014 7047     		bx	lr
 294              		.cfi_endproc
 295              	.LFE40:
ARM GAS  C:\Users\Ryan\AppData\Local\Temp\ccNll8MM.s 			page 9


 296              		.size	EEmotor__runShaper, .-EEmotor__runShaper
 297              		.global	__aeabi_fcmpgt
 298              		.global	__aeabi_fcmplt
 299              		.global	__aeabi_fmul
 300              		.global	__aeabi_fadd
 301              		.global	__aeabi_f2d
 302              		.global	__aeabi_dmul
 303              		.global	__aeabi_dadd
 304              		.global	__aeabi_d2f
 305 0016 C046     		.section	.text.EEmotor__runPI,"ax",%progbits
 306              		.align	2
 307              		.global	EEmotor__runPI
 308              		.code	16
 309              		.thumb_func
 310              		.type	EEmotor__runPI, %function
 311              	EEmotor__runPI:
 312              	.LFB41:
 157:EEmotor.c     **** 
 158:EEmotor.c     **** #define PI_MAXVAL 1.0
 159:EEmotor.c     **** #define PI_MINVAL -1.0
 160:EEmotor.c     **** float EEmotor__runPI(struct EEmotor_PIreg *self, float timestepSeconds, float error){ //returns con
 313              		.loc 1 160 0
 314              		.cfi_startproc
 315              		@ args = 0, pretend = 0, frame = 8
 316              		@ frame_needed = 0, uses_anonymous_args = 0
 317              	.LVL23:
 318 0000 F0B5     		push	{r4, r5, r6, r7, lr}
 319              		.cfi_def_cfa_offset 20
 320              		.cfi_offset 4, -20
 321              		.cfi_offset 5, -16
 322              		.cfi_offset 6, -12
 323              		.cfi_offset 7, -8
 324              		.cfi_offset 14, -4
 325 0002 83B0     		sub	sp, sp, #12
 326              		.cfi_def_cfa_offset 32
 327 0004 0700     		movs	r7, r0
 328 0006 0E1C     		adds	r6, r1, #0
 329 0008 141C     		adds	r4, r2, #0
 330              	.LVL24:
 161:EEmotor.c     ****     
 162:EEmotor.c     ****     float thiserror = error;//*self->INPUT_SCALAR; //Scaling moved outside of this handler for effi
 163:EEmotor.c     ****     if(thiserror > PI_MAXVAL){
 331              		.loc 1 163 0
 332 000a FE21     		movs	r1, #254
 333              	.LVL25:
 334 000c 8905     		lsls	r1, r1, #22
 335 000e 101C     		adds	r0, r2, #0
 336              	.LVL26:
 337 0010 FFF7FEFF 		bl	__aeabi_fcmpgt
 338              	.LVL27:
 339 0014 0028     		cmp	r0, #0
 340 0016 06D1     		bne	.L19
 164:EEmotor.c     ****         thiserror = PI_MAXVAL;
 165:EEmotor.c     ****         
 166:EEmotor.c     ****     }else if(thiserror < PI_MINVAL){
 341              		.loc 1 166 0
 342 0018 3449     		ldr	r1, .L25
ARM GAS  C:\Users\Ryan\AppData\Local\Temp\ccNll8MM.s 			page 10


 343 001a 201C     		adds	r0, r4, #0
 344 001c FFF7FEFF 		bl	__aeabi_fcmplt
 345              	.LVL28:
 346 0020 0028     		cmp	r0, #0
 347 0022 04D0     		beq	.L16
 348 0024 02E0     		b	.L20
 349              	.L19:
 164:EEmotor.c     ****         thiserror = PI_MAXVAL;
 350              		.loc 1 164 0
 351 0026 FE24     		movs	r4, #254
 352              	.LVL29:
 353 0028 A405     		lsls	r4, r4, #22
 354 002a 00E0     		b	.L16
 355              	.LVL30:
 356              	.L20:
 167:EEmotor.c     ****         thiserror = PI_MINVAL;
 357              		.loc 1 167 0
 358 002c 2F4C     		ldr	r4, .L25
 359              	.LVL31:
 360              	.L16:
 168:EEmotor.c     ****     }
 169:EEmotor.c     ****     
 170:EEmotor.c     ****     float control_out = 0;
 171:EEmotor.c     ****     
 172:EEmotor.c     ****     //============= PI CONTROLLER ===================//                                      
 173:EEmotor.c     ****     control_out = (thiserror * self->K_P); //Save P Term Output
 361              		.loc 1 173 0
 362 002e 3968     		ldr	r1, [r7]
 363 0030 201C     		adds	r0, r4, #0
 364 0032 FFF7FEFF 		bl	__aeabi_fmul
 365              	.LVL32:
 366 0036 051C     		adds	r5, r0, #0
 367              	.LVL33:
 174:EEmotor.c     ****     float thisIterm = ((((thiserror+self->last_error)/2.0 * self->K_I) * timestepSeconds) + self->l
 368              		.loc 1 174 0
 369 0038 B968     		ldr	r1, [r7, #8]
 370 003a 201C     		adds	r0, r4, #0
 371              	.LVL34:
 372 003c FFF7FEFF 		bl	__aeabi_fadd
 373              	.LVL35:
 374 0040 FFF7FEFF 		bl	__aeabi_f2d
 375              	.LVL36:
 376 0044 0022     		movs	r2, #0
 377 0046 2A4B     		ldr	r3, .L25+4
 378 0048 FFF7FEFF 		bl	__aeabi_dmul
 379              	.LVL37:
 380 004c 0090     		str	r0, [sp]
 381 004e 0191     		str	r1, [sp, #4]
 382 0050 7868     		ldr	r0, [r7, #4]
 383 0052 FFF7FEFF 		bl	__aeabi_f2d
 384              	.LVL38:
 385 0056 009A     		ldr	r2, [sp]
 386 0058 019B     		ldr	r3, [sp, #4]
 387 005a FFF7FEFF 		bl	__aeabi_dmul
 388              	.LVL39:
 389 005e 0090     		str	r0, [sp]
 390 0060 0191     		str	r1, [sp, #4]
ARM GAS  C:\Users\Ryan\AppData\Local\Temp\ccNll8MM.s 			page 11


 391 0062 301C     		adds	r0, r6, #0
 392 0064 FFF7FEFF 		bl	__aeabi_f2d
 393              	.LVL40:
 394 0068 009A     		ldr	r2, [sp]
 395 006a 019B     		ldr	r3, [sp, #4]
 396 006c FFF7FEFF 		bl	__aeabi_dmul
 397              	.LVL41:
 398 0070 0090     		str	r0, [sp]
 399 0072 0191     		str	r1, [sp, #4]
 400 0074 F868     		ldr	r0, [r7, #12]
 401 0076 FFF7FEFF 		bl	__aeabi_f2d
 402              	.LVL42:
 403 007a 009A     		ldr	r2, [sp]
 404 007c 019B     		ldr	r3, [sp, #4]
 405 007e FFF7FEFF 		bl	__aeabi_dadd
 406              	.LVL43:
 407 0082 FFF7FEFF 		bl	__aeabi_d2f
 408              	.LVL44:
 409 0086 061C     		adds	r6, r0, #0
 410              	.LVL45:
 175:EEmotor.c     ****     control_out = control_out + thisIterm; //Add I term portion to P term
 411              		.loc 1 175 0
 412 0088 011C     		adds	r1, r0, #0
 413 008a 281C     		adds	r0, r5, #0
 414              	.LVL46:
 415 008c FFF7FEFF 		bl	__aeabi_fadd
 416              	.LVL47:
 417 0090 051C     		adds	r5, r0, #0
 418              	.LVL48:
 176:EEmotor.c     ****     //============= PI CONTROLLER ===================//
 177:EEmotor.c     ****     
 178:EEmotor.c     ****     self->last_error = thiserror;
 419              		.loc 1 178 0
 420 0092 BC60     		str	r4, [r7, #8]
 179:EEmotor.c     ****     
 180:EEmotor.c     ****      if(control_out > PI_MAXVAL){ //Antiwindup - CTRL!
 421              		.loc 1 180 0
 422 0094 FE21     		movs	r1, #254
 423 0096 8905     		lsls	r1, r1, #22
 424 0098 FFF7FEFF 		bl	__aeabi_fcmpgt
 425              	.LVL49:
 426 009c 0028     		cmp	r0, #0
 427 009e 06D1     		bne	.L21
 181:EEmotor.c     ****         control_out = PI_MAXVAL;
 182:EEmotor.c     ****       }else if (control_out < PI_MINVAL){
 428              		.loc 1 182 0
 429 00a0 1249     		ldr	r1, .L25
 430 00a2 281C     		adds	r0, r5, #0
 431 00a4 FFF7FEFF 		bl	__aeabi_fcmplt
 432              	.LVL50:
 433 00a8 0028     		cmp	r0, #0
 434 00aa 04D0     		beq	.L17
 435 00ac 02E0     		b	.L22
 436              	.L21:
 181:EEmotor.c     ****         control_out = PI_MAXVAL;
 437              		.loc 1 181 0
 438 00ae FE25     		movs	r5, #254
ARM GAS  C:\Users\Ryan\AppData\Local\Temp\ccNll8MM.s 			page 12


 439              	.LVL51:
 440 00b0 AD05     		lsls	r5, r5, #22
 441 00b2 00E0     		b	.L17
 442              	.LVL52:
 443              	.L22:
 183:EEmotor.c     ****         control_out = PI_MINVAL;
 444              		.loc 1 183 0
 445 00b4 0D4D     		ldr	r5, .L25
 446              	.LVL53:
 447              	.L17:
 184:EEmotor.c     ****       }
 185:EEmotor.c     **** 
 186:EEmotor.c     ****       if(thisIterm > PI_MAXVAL){ //Antiwindup - I Term!
 448              		.loc 1 186 0
 449 00b6 FE21     		movs	r1, #254
 450 00b8 8905     		lsls	r1, r1, #22
 451 00ba 301C     		adds	r0, r6, #0
 452 00bc FFF7FEFF 		bl	__aeabi_fcmpgt
 453              	.LVL54:
 454 00c0 0028     		cmp	r0, #0
 455 00c2 06D1     		bne	.L23
 187:EEmotor.c     ****         thisIterm = PI_MAXVAL;
 188:EEmotor.c     ****       }else if (thisIterm < PI_MINVAL){
 456              		.loc 1 188 0
 457 00c4 0949     		ldr	r1, .L25
 458 00c6 301C     		adds	r0, r6, #0
 459 00c8 FFF7FEFF 		bl	__aeabi_fcmplt
 460              	.LVL55:
 461 00cc 0028     		cmp	r0, #0
 462 00ce 04D0     		beq	.L18
 463 00d0 02E0     		b	.L24
 464              	.L23:
 187:EEmotor.c     ****         thisIterm = PI_MAXVAL;
 465              		.loc 1 187 0
 466 00d2 FE26     		movs	r6, #254
 467              	.LVL56:
 468 00d4 B605     		lsls	r6, r6, #22
 469 00d6 00E0     		b	.L18
 470              	.LVL57:
 471              	.L24:
 189:EEmotor.c     ****         thisIterm = PI_MINVAL;
 472              		.loc 1 189 0
 473 00d8 044E     		ldr	r6, .L25
 474              	.LVL58:
 475              	.L18:
 190:EEmotor.c     ****       }
 191:EEmotor.c     ****     
 192:EEmotor.c     ****     self->last_Iterm = thisIterm;
 476              		.loc 1 192 0
 477 00da FE60     		str	r6, [r7, #12]
 193:EEmotor.c     ****     self->last_control = control_out;
 478              		.loc 1 193 0
 479 00dc 3D61     		str	r5, [r7, #16]
 194:EEmotor.c     ****     return(control_out*self->OUTPUT_SCALAR);
 480              		.loc 1 194 0
 481 00de B969     		ldr	r1, [r7, #24]
 482 00e0 281C     		adds	r0, r5, #0
ARM GAS  C:\Users\Ryan\AppData\Local\Temp\ccNll8MM.s 			page 13


 483 00e2 FFF7FEFF 		bl	__aeabi_fmul
 484              	.LVL59:
 195:EEmotor.c     **** }
 485              		.loc 1 195 0
 486 00e6 03B0     		add	sp, sp, #12
 487              		@ sp needed
 488              	.LVL60:
 489              	.LVL61:
 490              	.LVL62:
 491              	.LVL63:
 492 00e8 F0BD     		pop	{r4, r5, r6, r7, pc}
 493              	.L26:
 494 00ea C046     		.align	2
 495              	.L25:
 496 00ec 000080BF 		.word	-1082130432
 497 00f0 0000E03F 		.word	1071644672
 498              		.cfi_endproc
 499              	.LFE41:
 500              		.size	EEmotor__runPI, .-EEmotor__runPI
 501              		.global	__aeabi_ui2f
 502              		.global	__aeabi_fdiv
 503              		.global	__aeabi_i2f
 504              		.section	.text.EEmotor__run,"ax",%progbits
 505              		.align	2
 506              		.global	EEmotor__run
 507              		.code	16
 508              		.thumb_func
 509              		.type	EEmotor__run, %function
 510              	EEmotor__run:
 511              	.LFB39:
 109:EEmotor.c     ****     if(self->oldMillis > newmillis){ //millisecond rollover event occured!
 512              		.loc 1 109 0
 513              		.cfi_startproc
 514              		@ args = 0, pretend = 0, frame = 0
 515              		@ frame_needed = 0, uses_anonymous_args = 0
 516              	.LVL64:
 517 0000 70B5     		push	{r4, r5, r6, lr}
 518              		.cfi_def_cfa_offset 16
 519              		.cfi_offset 4, -16
 520              		.cfi_offset 5, -12
 521              		.cfi_offset 6, -8
 522              		.cfi_offset 14, -4
 523 0002 0400     		movs	r4, r0
 524 0004 1600     		movs	r6, r2
 110:EEmotor.c     ****         self->oldMillis = newmillis;
 525              		.loc 1 110 0
 526 0006 0069     		ldr	r0, [r0, #16]
 527              	.LVL65:
 528 0008 8842     		cmp	r0, r1
 529 000a 03D9     		bls	.L28
 111:EEmotor.c     ****         return(-1); //error
 530              		.loc 1 111 0
 531 000c 2161     		str	r1, [r4, #16]
 112:EEmotor.c     ****     }
 532              		.loc 1 112 0
 533 000e 0120     		movs	r0, #1
 534 0010 4042     		rsbs	r0, r0, #0
ARM GAS  C:\Users\Ryan\AppData\Local\Temp\ccNll8MM.s 			page 14


 535 0012 36E0     		b	.L29
 536              	.L28:
 115:EEmotor.c     ****     float elapsedSec = (float)elapsedMs/1000.0;
 537              		.loc 1 115 0
 538 0014 081A     		subs	r0, r1, r0
 539              	.LVL66:
 116:EEmotor.c     ****     
 540              		.loc 1 116 0
 541 0016 FFF7FEFF 		bl	__aeabi_ui2f
 542              	.LVL67:
 543 001a 1A49     		ldr	r1, .L32
 544 001c FFF7FEFF 		bl	__aeabi_fdiv
 545              	.LVL68:
 546 0020 051C     		adds	r5, r0, #0
 547              	.LVL69:
 118:EEmotor.c     ****         self->encoder = newencoder;
 548              		.loc 1 118 0
 549 0022 E368     		ldr	r3, [r4, #12]
 550 0024 B342     		cmp	r3, r6
 551 0026 08D2     		bcs	.L30
 118:EEmotor.c     ****         self->encoder = newencoder;
 552              		.loc 1 118 0 is_stmt 0 discriminator 1
 553 0028 F21A     		subs	r2, r6, r3
 554 002a 1749     		ldr	r1, .L32+4
 555 002c 8A42     		cmp	r2, r1
 556 002e 04D9     		bls	.L30
 119:EEmotor.c     ****         self->set_position = newencoder; // TODO: Fix Rollover Handling - This is a hack!!!
 557              		.loc 1 119 0 is_stmt 1
 558 0030 E660     		str	r6, [r4, #12]
 120:EEmotor.c     ****         return(-2); //error  
 559              		.loc 1 120 0
 560 0032 2660     		str	r6, [r4]
 121:EEmotor.c     ****     }else if( (newencoder < self->encoder) && ((self->encoder - newencoder) > EEMOTOR__ENCODER_ERR_
 561              		.loc 1 121 0
 562 0034 0220     		movs	r0, #2
 563              	.LVL70:
 564 0036 4042     		rsbs	r0, r0, #0
 565 0038 23E0     		b	.L29
 566              	.LVL71:
 567              	.L30:
 122:EEmotor.c     ****         self->encoder = newencoder;
 568              		.loc 1 122 0
 569 003a B342     		cmp	r3, r6
 570 003c 08D9     		bls	.L31
 122:EEmotor.c     ****         self->encoder = newencoder;
 571              		.loc 1 122 0 is_stmt 0 discriminator 1
 572 003e 9B1B     		subs	r3, r3, r6
 573 0040 114A     		ldr	r2, .L32+4
 574 0042 9342     		cmp	r3, r2
 575 0044 04D9     		bls	.L31
 123:EEmotor.c     ****         self->set_position = newencoder; // TODO: Fix Rollover Handling - This is a hack!!!
 576              		.loc 1 123 0 is_stmt 1
 577 0046 E660     		str	r6, [r4, #12]
 124:EEmotor.c     ****         return(-2); //error
 578              		.loc 1 124 0
 579 0048 2660     		str	r6, [r4]
 125:EEmotor.c     ****         
ARM GAS  C:\Users\Ryan\AppData\Local\Temp\ccNll8MM.s 			page 15


 580              		.loc 1 125 0
 581 004a 0220     		movs	r0, #2
 582              	.LVL72:
 583 004c 4042     		rsbs	r0, r0, #0
 584 004e 18E0     		b	.L29
 585              	.LVL73:
 586              	.L31:
 587              	.LBB2:
 132:EEmotor.c     ****     
 588              		.loc 1 132 0
 589 0050 291C     		adds	r1, r5, #0
 590 0052 2000     		movs	r0, r4
 591              	.LVL74:
 592 0054 FFF7FEFF 		bl	EEmotor__runShaper
 593              	.LVL75:
 134:EEmotor.c     ****         self->output = EEmotor__runPI(&self->speedReg,elapsedSec,EEmotor__runPI(&self->PosReg, elap
 594              		.loc 1 134 0
 595 0058 6368     		ldr	r3, [r4, #4]
 596 005a 981B     		subs	r0, r3, r6
 597              	.LVL76:
 135:EEmotor.c     ****         //self->output = EEmotor__runPI(&self->PosReg, elapsedSec, ((float)positionError*self->PosR
 598              		.loc 1 135 0
 599 005c FFF7FEFF 		bl	__aeabi_i2f
 600              	.LVL77:
 601 0060 216D     		ldr	r1, [r4, #80]
 602 0062 FFF7FEFF 		bl	__aeabi_fmul
 603              	.LVL78:
 604 0066 021C     		adds	r2, r0, #0
 605 0068 2000     		movs	r0, r4
 606 006a 3C30     		adds	r0, r0, #60
 607 006c 291C     		adds	r1, r5, #0
 608 006e FFF7FEFF 		bl	EEmotor__runPI
 609              	.LVL79:
 610 0072 021C     		adds	r2, r0, #0
 611 0074 2000     		movs	r0, r4
 612 0076 2030     		adds	r0, r0, #32
 613 0078 291C     		adds	r1, r5, #0
 614 007a FFF7FEFF 		bl	EEmotor__runPI
 615              	.LVL80:
 616 007e 6061     		str	r0, [r4, #20]
 617              	.LBE2:
 141:EEmotor.c     **** }
 618              		.loc 1 141 0
 619 0080 0120     		movs	r0, #1
 620              	.LVL81:
 621              	.L29:
 142:EEmotor.c     **** 
 622              		.loc 1 142 0
 623              		@ sp needed
 624              	.LVL82:
 625              	.LVL83:
 626 0082 70BD     		pop	{r4, r5, r6, pc}
 627              	.L33:
 628              		.align	2
 629              	.L32:
 630 0084 00007A44 		.word	1148846080
 631 0088 FF0F0000 		.word	4095
ARM GAS  C:\Users\Ryan\AppData\Local\Temp\ccNll8MM.s 			page 16


 632              		.cfi_endproc
 633              	.LFE39:
 634              		.size	EEmotor__run, .-EEmotor__run
 635              		.text
 636              	.Letext0:
 637              		.file 2 "c:\\program files (x86)\\cypress\\psoc creator\\4.4\\psoc creator\\import\\gnu\\arm\\5.4.
 638              		.file 3 "c:\\program files (x86)\\cypress\\psoc creator\\4.4\\psoc creator\\import\\gnu\\arm\\5.4.
 639              		.file 4 "c:\\program files (x86)\\cypress\\psoc creator\\4.4\\psoc creator\\import\\gnu\\arm\\5.4.